(dp1
I0
(S''
I0
tp2
sI1
(dp3
I0
(S'a'
I10144200
tp4
sI1
(dp5
I0
(S'I'
I3978265
tp6
sssI2
(dp7
I0
(S'be'
I12545825
tp8
sI1
(dp9
I0
(S'he'
I2909254
tp10
sI1
(dp11
I0
(S'we'
I1820935
tp12
sI1
(dp13
I0
(S'me'
I709623
tp14
sI1
(dp15
I0
(S'ie'
I13724
tp16
sI1
(dp17
I0
(S're'
I15773
tp18
sssssI2
(dp19
I0
(S'by'
I1490548
tp20
sssI2
(dp21
I0
(S'of'
I10343885
tp22
sI1
(dp23
I0
(S'on'
I2485306
tp24
sI1
(dp25
I0
(S'or'
I1379320
tp26
sI1
(dp27
I0
(S'oh'
I103613
tp28
sI1
(dp29
I0
(S'ok'
I54697
tp30
ssssI2
(dp31
I0
(S'if'
I933542
tp32
sssI2
(dp33
I0
(S'in'
I6996437
tp34
sI1
(dp35
I0
(S'it'
I3872477
tp36
ssI2
(dp37
I0
(S'to'
I6332195
tp38
sI1
(dp39
I0
(S'do'
I2573587
tp40
sI1
(dp41
I0
(S'go'
I1151045
tp42
sI1
(dp43
I0
(S'so'
I756550
tp44
sI1
(dp45
I0
(S'no'
I402222
tp46
sssssI2
(dp47
I0
(S'at'
I1767638
tp48
sI1
(dp49
I0
(S'as'
I1296879
tp50
sI1
(dp51
I0
(S'ad'
I21064
tp52
sI1
(dp53
I0
(S'ah'
I9788
tp54
ssssI2
(dp55
I0
(S'my'
I919821
tp56
sI2
(dp57
I0
(S'up'
I795534
tp58
sI1
(dp59
I0
(S'us'
I351088
tp60
sI1
(dp61
I0
(S'uh'
I6155
tp62
sssI2
(dp63
I0
(S'Mr'
I188555
tp64
sI1
(dp65
I0
(S'Ms'
I31610
tp66
ssI2
(dp67
I0
(S'TV'
I49438
tp68
sI2
(dp69
I0
(S'PM'
I54765
tp70
sI1
(dp71
I0
(S'AM'
I34451
tp72
sI2
(dp73
I0
(S'PC'
I11072
tp74
sssI2
(dp75
I0
(S'hi'
I18910
tp76
sI2
(dp77
I0
(S'vs'
I16003
tp78
sI2
(dp79
I0
(S'OK'
I10733
tp80
ssssssssssssssI3
(dp81
I0
(S'the'
I22038615
tp82
sI1
(dp83
I0
(S'she'
I1484869
tp84
sI2
(dp85
I0
(S'tie'
I24408
tp86
sI1
(dp87
I0
(S'toe'
I9047
tp88
ssssI2
(dp89
I0
(S'who'
I1018283
tp90
sI1
(dp91
I0
(S'why'
I235442
tp92
ssI2
(dp93
I0
(S'two'
I511027
tp94
sI1
(dp95
I0
(S'too'
I280396
tp96
ssI3
(dp97
I0
(S'shy'
I5806
tp98
sssI3
(dp99
I0
(S'her'
I969591
tp100
sI1
(dp101
I0
(S'hey'
I27659
tp102
ssI2
(dp103
I0
(S'see'
I663645
tp104
sI1
(dp105
I0
(S'fee'
I20263
tp106
sI1
(dp107
I0
(S'bee'
I6342
tp108
sssI2
(dp109
I0
(S'ten'
I46827
tp110
sI1
(dp111
I0
(S'tea'
I16373
tp112
ssssI3
(dp113
I0
(S'one'
I768232
tp114
sI1
(dp115
I0
(S'owe'
I10141
tp116
ssI2
(dp117
I0
(S'use'
I420781
tp118
sI2
(dp119
I0
(S'eye'
I169150
tp120
sI2
(dp121
I0
(S'age'
I103402
tp122
sI2
(dp123
I0
(S'die'
I98376
tp124
sI1
(dp125
I0
(S'lie'
I51657
tp126
sI1
(dp127
I0
(S'pie'
I9019
tp128
ssI2
(dp129
I0
(S'due'
I21141
tp130
sssI2
(dp131
I0
(S'ice'
I31686
tp132
sI2
(dp133
I0
(S'sue'
I9797
tp134
sssssssI3
(dp135
I0
(S'try'
I294023
tp136
sI1
(dp137
I0
(S'toy'
I13935
tp138
ssI2
(dp139
I0
(S'tax'
I80713
tp140
sI1
(dp141
I0
(S'tap'
I11279
tp142
sI1
(dp143
I0
(S'tag'
I5735
tp144
sssI2
(dp145
I0
(S'top'
I57743
tp146
sI1
(dp147
I0
(S'tip'
I18868
tp148
ssssssssI3
(dp149
I0
(S'and'
I10741073
tp150
sI1
(dp151
I0
(S'any'
I348100
tp152
sI2
(dp153
I0
(S'end'
I134104
tp154
sI2
(dp155
I0
(S'add'
I117842
tp156
sI1
(dp157
I0
(S'aid'
I22642
tp158
sssssI2
(dp159
I0
(S'can'
I1022775
tp160
sI1
(dp161
I0
(S'man'
I409760
tp162
sI1
(dp163
I0
(S'fan'
I32919
tp164
sI1
(dp165
I0
(S'pan'
I14148
tp166
sI1
(dp167
I0
(S'ban'
I9226
tp168
sI1
(dp169
I0
(S'van'
I8364
tp170
ssssssI2
(dp171
I0
(S'bad'
I134910
tp172
sI1
(dp173
I0
(S'dad'
I20164
tp174
sI1
(dp175
I0
(S'sad'
I16163
tp176
sI1
(dp177
I0
(S'mad'
I12903
tp178
sI1
(dp179
I0
(S'pad'
I7846
tp180
ssssssI3
(dp181
I0
(S'all'
I892102
tp182
sI2
(dp183
I0
(S'ask'
I284632
tp184
sI1
(dp185
I0
(S'ass'
I6911
tp186
sI1
(dp187
I0
(S'ash'
I5647
tp188
sssI2
(dp189
I0
(S'ago'
I125252
tp190
sI2
(dp191
I0
(S'art'
I117851
tp192
sI1
(dp193
I0
(S'arm'
I84865
tp194
sI2
(dp195
I0
(S'act'
I45648
tp196
sssI2
(dp197
I0
(S'air'
I105932
tp198
sI1
(dp199
I0
(S'aim'
I18194
tp200
sssssI3
(dp201
I0
(S'old'
I236577
tp202
sssI3
(dp203
I0
(S'kid'
I126428
tp204
sI1
(dp205
I0
(S'rid'
I10104
tp206
sI1
(dp207
I0
(S'bid'
I6954
tp208
sI1
(dp209
I0
(S'lid'
I5558
tp210
ssssI2
(dp211
I0
(S'red'
I66217
tp212
sI1
(dp213
I0
(S'bed'
I60304
tp214
sI2
(dp215
I0
(S'rod'
I5788
tp216
sssI2
(dp217
I0
(S'nod'
I27283
tp218
sI1
(dp219
I0
(S'God'
I9694
tp220
ssI2
(dp221
I0
(S'odd'
I11849
tp222
sI2
(dp223
I0
(S'mud'
I8026
tp224
ssssssssI3
(dp225
I0
(S'for'
I3281454
tp226
sI1
(dp227
I0
(S'far'
I148621
tp228
sI1
(dp229
I0
(S'fur'
I5466
tp230
ssI2
(dp231
I0
(S'nor'
I37230
tp232
sssI2
(dp233
I0
(S'you'
I3081151
tp234
sI2
(dp235
I0
(S'not'
I1638830
tp236
sI1
(dp237
I0
(S'now'
I605997
tp238
sI2
(dp239
I0
(S'lot'
I169570
tp240
sI1
(dp241
I0
(S'hot'
I54601
tp242
sI1
(dp243
I0
(S'pot'
I15407
tp244
sI1
(dp245
I0
(S'dot'
I5795
tp246
ssssssI2
(dp247
I0
(S'how'
I538893
tp248
sI1
(dp249
I0
(S'low'
I108990
tp250
sI1
(dp251
I0
(S'row'
I19519
tp252
sI1
(dp253
I0
(S'cow'
I10032
tp254
sI1
(dp255
I0
(S'wow'
I8016
tp256
sI1
(dp257
I0
(S'bow'
I6800
tp258
ssssssI2
(dp259
I0
(S'job'
I154743
tp260
sI1
(dp261
I0
(S'joy'
I11171
tp262
ssI2
(dp263
I0
(S'boy'
I107447
tp264
sI1
(dp265
I0
(S'box'
I49667
tp266
ssI2
(dp267
I0
(S'son'
I80895
tp268
sI2
(dp269
I0
(S'dog'
I52347
tp270
sI1
(dp271
I0
(S'log'
I8606
tp272
ssI2
(dp273
I0
(S'mom'
I23450
tp274
sI2
(dp275
I0
(S'cop'
I16228
tp276
sI1
(dp277
I0
(S'pop'
I13123
tp278
sssssssssI3
(dp279
I0
(S'our'
I525107
tp280
sssI3
(dp281
I0
(S'few'
I197266
tp282
sI2
(dp283
I0
(S'per'
I59432
tp284
sI3
(dp285
I0
(S'fly'
I41373
tp286
sI2
(dp287
I0
(S'fit'
I27875
tp288
sI1
(dp289
I0
(S'fat'
I24844
tp290
sI2
(dp291
I0
(S'fix'
I19349
tp292
sssI2
(dp293
I0
(S'fun'
I18984
tp294
sssssI3
(dp295
I0
(S'car'
I133571
tp296
sI1
(dp297
I0
(S'war'
I117804
tp298
sI1
(dp299
I0
(S'bar'
I39853
tp300
sI1
(dp301
I0
(S'ear'
I29597
tp302
sI1
(dp303
I0
(S'jar'
I6284
tp304
sssssI2
(dp305
I0
(S'sir'
I17733
tp306
sssssI3
(dp307
I0
(S'say'
I1915138
tp308
sI1
(dp309
I0
(S'way'
I470401
tp310
sI1
(dp311
I0
(S'day'
I432773
tp312
sI1
(dp313
I0
(S'may'
I324569
tp314
sI1
(dp315
I0
(S'pay'
I133133
tp316
sI1
(dp317
I0
(S'lay'
I49358
tp318
sI1
(dp319
I0
(S'gay'
I17428
tp320
sI1
(dp321
I0
(S'bay'
I8209
tp322
sI1
(dp323
I0
(S'hay'
I7378
tp324
ssssssssI2
(dp325
I0
(S'sky'
I35141
tp326
sssI2
(dp327
I0
(S'sit'
I147185
tp328
sI1
(dp329
I0
(S'set'
I127369
tp330
sI2
(dp331
I0
(S'six'
I90571
tp332
sI1
(dp333
I0
(S'sin'
I9048
tp334
ssssI2
(dp335
I0
(S'eat'
I73505
tp336
sI1
(dp337
I0
(S'cat'
I21135
tp338
sI1
(dp339
I0
(S'hat'
I18198
tp340
sI1
(dp341
I0
(S'rat'
I8177
tp342
sI1
(dp343
I0
(S'bat'
I7694
tp344
sI1
(dp345
I0
(S'pat'
I5968
tp346
ssssssI2
(dp347
I0
(S'sea'
I39516
tp348
ssI3
(dp349
I0
(S'sex'
I47827
tp350
sI2
(dp351
I0
(S'sun'
I32646
tp352
sI1
(dp353
I0
(S'sum'
I7217
tp354
ssI2
(dp355
I0
(S'ski'
I11656
tp356
sssssI3
(dp357
I0
(S'law'
I133706
tp358
sI1
(dp359
I0
(S'lab'
I16498
tp360
sI1
(dp361
I0
(S'lap'
I9260
tp362
ssI2
(dp363
I0
(S'raw'
I11310
tp364
sI1
(dp365
I0
(S'jaw'
I6922
tp366
ssssI2
(dp367
I0
(S'bag'
I40007
tp368
sI2
(dp369
I0
(S'gas'
I38194
tp370
sI1
(dp371
I0
(S'gap'
I16216
tp372
ssI2
(dp373
I0
(S'map'
I23666
tp374
sI1
(dp375
I0
(S'cap'
I14672
tp376
ssI2
(dp377
I0
(S'cab'
I6561
tp378
sI2
(dp379
I0
(S'dam'
I5968
tp380
sI2
(dp381
I0
(S'oak'
I5938
tp382
sssssssI3
(dp383
I0
(S'guy'
I110409
tp384
sI1
(dp385
I0
(S'buy'
I101105
tp386
ssI2
(dp387
I0
(S'key'
I36056
tp388
sI2
(dp389
I0
(S'cry'
I29690
tp390
sI1
(dp391
I0
(S'dry'
I23809
tp392
sssssssI3
(dp393
I0
(S'but'
I1776767
tp394
sI1
(dp395
I0
(S'out'
I678603
tp396
sI1
(dp397
I0
(S'put'
I237480
tp398
sI1
(dp399
I0
(S'cut'
I96012
tp400
sI1
(dp401
I0
(S'nut'
I9605
tp402
sI1
(dp403
I0
(S'gut'
I6067
tp404
sssssI2
(dp405
I0
(S'bit'
I41915
tp406
sI1
(dp407
I0
(S'bet'
I12079
tp408
ssI2
(dp409
I0
(S'bus'
I25850
tp410
sI1
(dp411
I0
(S'bug'
I6541
tp412
sssssI2
(dp413
I0
(S"n't"
I1619007
tp414
sI1
(dp415
I0
(S'net'
I10918
tp416
ssI2
(dp417
I0
(S'get'
I992596
tp418
sI1
(dp419
I0
(S'let'
I240300
tp420
sI1
(dp421
I0
(S'yet'
I135484
tp422
sI1
(dp423
I0
(S'wet'
I13963
tp424
sI1
(dp425
I0
(S'jet'
I9690
tp426
sI1
(dp427
I0
(S'pet'
I9118
tp428
ssssssI2
(dp429
I0
(S'hit'
I73999
tp430
sI1
(dp431
I0
(S'pit'
I7132
tp432
sI1
(dp433
I0
(S'kit'
I6912
tp434
sssI2
(dp435
I0
(S'opt'
I5371
tp436
ssssI3
(dp437
I0
(S'big'
I227169
tp438
sI1
(dp439
I0
(S'beg'
I8542
tp440
ssI2
(dp441
I0
(S'hug'
I7478
tp442
ssI3
(dp443
I0
(S'run'
I187325
tp444
sI1
(dp445
I0
(S'gun'
I47305
tp446
sI2
(dp447
I0
(S'rub'
I11695
tp448
sssI2
(dp449
I0
(S'cup'
I53633
tp450
sI2
(dp451
I0
(S'huh'
I7563
tp452
ssssssI3
(dp453
I0
(S'his'
I1801708
tp454
sI1
(dp455
I0
(S'him'
I677707
tp456
sI1
(dp457
I0
(S'hip'
I12863
tp458
sssI2
(dp459
I0
(S'its'
I539719
tp460
sI2
(dp461
I0
(S'yes'
I157364
tp462
sI2
(dp463
I0
(S'Mrs'
I40545
tp464
sssI3
(dp465
I0
(S'win'
I111478
tp466
sI1
(dp467
I0
(S'pin'
I6000
tp468
ssI2
(dp469
I0
(S'oil'
I74386
tp470
sI2
(dp471
I0
(S'lip'
I25250
tp472
sI1
(dp473
I0
(S'rip'
I8164
tp474
sI1
(dp475
I0
(S'dip'
I5664
tp476
sssI2
(dp477
I0
(S'mix'
I20642
tp478
sI2
(dp479
I0
(S'dig'
I13633
tp480
sI1
(dp481
I0
(S'pig'
I8307
tp482
ssI2
(dp483
I0
(S'via'
I13064
tp484
sI2
(dp485
I0
(S'rib'
I5662
tp486
sI1
(dp487
I0
(S'rim'
I5676
tp488
ssssssssssI3
(dp489
I0
(S'new'
I435993
tp490
sI1
(dp491
I0
(S'Jew'
I17893
tp492
ssI2
(dp493
I0
(S'leg'
I47477
tp494
sI2
(dp495
I0
(S'pen'
I8117
tp496
sI2
(dp497
I0
(S'web'
I6411
tp498
ssssI3
(dp499
I0
(S'own'
I240452
tp500
sI2
(dp501
I0
(S'off'
I183854
tp502
ssI3
(dp503
I0
(S'egg'
I27917
tp504
sI2
(dp505
I0
(S'era'
I19209
tp506
sI2
(dp507
I0
(S'etc'
I10112
tp508
sssI3
(dp509
I0
(S'CEO'
I13956
tp510
sI3
(dp511
I0
(S'DNA'
I11580
tp512
sI3
(dp513
I0
(S'ill'
I10446
tp514
sI3
(dp515
I0
(S'gym'
I7229
tp516
sI3
(dp517
I0
(S'pro'
I6867
tp518
sssssssssssssssI4
(dp519
I0
(S'have'
I4303955
tp520
sI1
(dp521
I0
(S'save'
I52067
tp522
sI1
(dp523
I0
(S'wave'
I26844
tp524
sI1
(dp525
I0
(S'cave'
I8261
tp526
sssI2
(dp527
I0
(S'hate'
I24921
tp528
sssI2
(dp529
I0
(S'make'
I857168
tp530
sI1
(dp531
I0
(S'take'
I670745
tp532
sI1
(dp533
I0
(S'wake'
I21330
tp534
sI1
(dp535
I0
(S'lake'
I15836
tp536
sI1
(dp537
I0
(S'cake'
I13336
tp538
sI1
(dp539
I0
(S'bake'
I12253
tp540
sI1
(dp541
I0
(S'sake'
I8954
tp542
ssssssI2
(dp543
I0
(S'male'
I24873
tp544
sI1
(dp545
I0
(S'mate'
I6693
tp546
ssssI2
(dp547
I0
(S'same'
I222836
tp548
sI1
(dp549
I0
(S'game'
I146311
tp550
sI1
(dp551
I0
(S'name'
I127139
tp552
sI1
(dp553
I0
(S'fame'
I5485
tp554
sssI2
(dp555
I0
(S'safe'
I36547
tp556
sI1
(dp557
I0
(S'sale'
I15351
tp558
ssssI2
(dp559
I0
(S'case'
I200773
tp560
sI1
(dp561
I0
(S'care'
I88862
tp562
sI1
(dp563
I0
(S'cage'
I6621
tp564
ssI2
(dp565
I0
(S'base'
I75887
tp566
sI1
(dp567
I0
(S'ease'
I9247
tp568
ssssI2
(dp569
I0
(S'face'
I127291
tp570
sI1
(dp571
I0
(S'race'
I54838
tp572
sI1
(dp573
I0
(S'pace'
I12891
tp574
ssI2
(dp575
I0
(S'fade'
I11373
tp576
sI1
(dp577
I0
(S'fate'
I10521
tp578
ssssI2
(dp579
I0
(S'late'
I86421
tp580
sI1
(dp581
I0
(S'rate'
I87224
tp582
sI1
(dp583
I0
(S'date'
I31467
tp584
sI1
(dp585
I0
(S'gate'
I17999
tp586
sssI2
(dp587
I0
(S'lane'
I6540
tp588
sssI2
(dp589
I0
(S'page'
I55937
tp590
sI1
(dp591
I0
(S'wage'
I13033
tp592
sI1
(dp593
I0
(S'rage'
I6877
tp594
ssI2
(dp595
I0
(S'pale'
I11598
tp596
sssI2
(dp597
I0
(S'tape'
I25730
tp598
sI1
(dp599
I0
(S'tale'
I15004
tp600
sI2
(dp601
I0
(S'rape'
I8790
tp602
sssI2
(dp603
I0
(S'rare'
I18978
tp604
sI1
(dp605
I0
(S'dare'
I9033
tp606
sI1
(dp607
I0
(S'bare'
I8943
tp608
sssI2
(dp609
I0
(S'gaze'
I9852
tp610
ssssssssI3
(dp611
I0
(S'move'
I179388
tp612
sI3
(dp613
I0
(S'hike'
I6111
tp614
ssssI3
(dp615
I0
(S'here'
I412315
tp616
sI1
(dp617
I0
(S'hire'
I25073
tp618
ssI2
(dp619
I0
(S'home'
I170527
tp620
sI1
(dp621
I0
(S'hope'
I81385
tp622
sI1
(dp623
I0
(S'hole'
I32302
tp624
sssI2
(dp625
I0
(S'huge'
I42582
tp626
sI2
(dp627
I0
(S'hide'
I31098
tp628
sssI3
(dp629
I0
(S'hard'
I86817
tp630
sI1
(dp631
I0
(S'harm'
I7619
tp632
ssssI3
(dp633
I0
(S'give'
I384503
tp634
sI1
(dp635
I0
(S'live'
I176144
tp636
sI1
(dp637
I0
(S'five'
I125571
tp638
sssI2
(dp639
I0
(S'love'
I103681
tp640
ssI4
(dp641
I0
(S'hand'
I225247
tp642
sI1
(dp643
I0
(S'hang'
I46632
tp644
ssI2
(dp645
I0
(S'half'
I70930
tp646
sI1
(dp647
I0
(S'hall'
I20236
tp648
ssI2
(dp649
I0
(S'hair'
I69564
tp650
sI2
(dp651
I0
(S'haul'
I6401
tp652
ssssssssI3
(dp653
I0
(S'that'
I3430996
tp654
sI1
(dp655
I0
(S'what'
I1181023
tp656
sI2
(dp657
I0
(S'than'
I579757
tp658
sssI2
(dp659
I0
(S'heat'
I40363
tp660
ssI3
(dp661
I0
(S'time'
I764657
tp662
sI1
(dp663
I0
(S'tire'
I11494
tp664
sI1
(dp665
I0
(S'tide'
I6698
tp666
sssI2
(dp667
I0
(S'true'
I79299
tp668
sI1
(dp669
I0
(S'tree'
I66630
tp670
ssI2
(dp671
I0
(S'type'
I68481
tp672
sI2
(dp673
I0
(S'tone'
I17954
tp674
sI1
(dp675
I0
(S'tune'
I7934
tp676
ssI2
(dp677
I0
(S'tube'
I13364
tp678
sssssI3
(dp679
I0
(S'talk'
I229429
tp680
sI1
(dp681
I0
(S'task'
I39209
tp682
sI1
(dp683
I0
(S'tank'
I19158
tp684
ssI2
(dp685
I0
(S'tall'
I25304
tp686
sssI2
(dp687
I0
(S'tail'
I10663
tp688
ssI4
(dp689
I0
(S'shoe'
I26945
tp690
sI4
(dp691
I0
(S'hint'
I6951
tp692
ssssI4
(dp693
I0
(S'want'
I514972
tp694
sI1
(dp695
I0
(S'wait'
I102463
tp696
sI2
(dp697
I0
(S'pant'
I12457
tp698
sssI2
(dp699
I0
(S'last'
I289843
tp700
sI1
(dp701
I0
(S'past'
I56588
tp702
sI1
(dp703
I0
(S'east'
I53010
tp704
sI1
(dp705
I0
(S'fast'
I35474
tp706
sI1
(dp707
I0
(S'vast'
I17836
tp708
sI1
(dp709
I0
(S'cast'
I17163
tp710
ssssssI2
(dp711
I0
(S'part'
I207861
tp712
sI1
(dp713
I0
(S'cart'
I6822
tp714
ssI2
(dp715
I0
(S'fact'
I164401
tp716
sI2
(dp717
I0
(S'salt'
I24711
tp718
ssssI3
(dp719
I0
(S'hunt'
I8812
tp720
sssI3
(dp721
I0
(S'data'
I76594
tp722
sI2
(dp723
I0
(S'path'
I28344
tp724
sI1
(dp725
I0
(S'math'
I10430
tp726
sI1
(dp727
I0
(S'bath'
I7149
tp728
ssssI4
(dp729
I0
(S'hurt'
I34445
tp730
sI2
(dp731
I0
(S'host'
I19389
tp732
ssssI4
(dp733
I0
(S'hear'
I196070
tp734
sI1
(dp735
I0
(S'head'
I160131
tp736
sI1
(dp737
I0
(S'heal'
I5797
tp738
ssssssI4
(dp739
I0
(S'some'
I674193
tp740
sI1
(dp741
I0
(S'come'
I628254
tp742
sI2
(dp743
I0
(S'sole'
I5535
tp744
sssI2
(dp745
I0
(S'more'
I517536
tp746
sI1
(dp747
I0
(S'core'
I18571
tp748
sI2
(dp749
I0
(S'mode'
I12107
tp750
sssI2
(dp751
I0
(S'lose'
I134102
tp752
sI1
(dp753
I0
(S'nose'
I21938
tp754
sI1
(dp755
I0
(S'pose'
I15230
tp756
sI1
(dp757
I0
(S'rose'
I8988
tp758
sI1
(dp759
I0
(S'dose'
I8291
tp760
sssssI2
(dp761
I0
(S'role'
I88666
tp762
sI1
(dp763
I0
(S'pole'
I11446
tp764
sI2
(dp765
I0
(S'rope'
I9300
tp766
sssI2
(dp767
I0
(S'note'
I57025
tp768
sI1
(dp769
I0
(S'vote'
I39464
tp770
sI2
(dp771
I0
(S'none'
I35359
tp772
sssI2
(dp773
I0
(S'bone'
I26282
tp774
sI1
(dp775
I0
(S'zone'
I20472
tp776
ssI2
(dp777
I0
(S'code'
I22015
tp778
sI1
(dp779
I0
(S'cope'
I9952
tp780
ssI2
(dp781
I0
(S'joke'
I15284
tp782
sI1
(dp783
I0
(S'poke'
I5575
tp784
sssssssI3
(dp785
I0
(S'sure'
I116186
tp786
sssI3
(dp787
I0
(S'side'
I152559
tp788
sI1
(dp789
I0
(S'site'
I75932
tp790
sI1
(dp791
I0
(S'size'
I51868
tp792
sssssI3
(dp793
I0
(S'like'
I568850
tp794
sI1
(dp795
I0
(S'life'
I333085
tp796
sI1
(dp797
I0
(S'line'
I135986
tp798
ssI2
(dp799
I0
(S'bike'
I17306
tp800
sssI2
(dp801
I0
(S'wife'
I83601
tp802
sI1
(dp803
I0
(S'wide'
I41233
tp804
sI1
(dp805
I0
(S'wine'
I26682
tp806
sI1
(dp807
I0
(S'wire'
I14310
tp808
sI1
(dp809
I0
(S'wipe'
I12435
tp810
sI1
(dp811
I0
(S'wise'
I9101
tp812
ssssssI2
(dp813
I0
(S'fire'
I59386
tp814
sI1
(dp815
I0
(S'fine'
I55174
tp816
sI1
(dp817
I0
(S'file'
I20832
tp818
sssI2
(dp819
I0
(S'rise'
I53542
tp820
sI1
(dp821
I0
(S'ride'
I30476
tp822
sI1
(dp823
I0
(S'rice'
I11944
tp824
sssI2
(dp825
I0
(S'nice'
I44792
tp826
sI1
(dp827
I0
(S'nine'
I32967
tp828
ssI2
(dp829
I0
(S'cite'
I19011
tp830
sI1
(dp831
I0
(S'bite'
I9982
tp832
ssI2
(dp833
I0
(S'mine'
I15794
tp834
sI1
(dp835
I0
(S'pine'
I9824
tp836
ssI2
(dp837
I0
(S'pipe'
I10432
tp838
sI1
(dp839
I0
(S'pile'
I10594
tp840
ssI2
(dp841
I0
(S'aide'
I10335
tp842
sssssssssI3
(dp843
I0
(S'once'
I126203
tp844
sI2
(dp845
I0
(S'knee'
I25912
tp846
ssI3
(dp847
I0
(S'able'
I103171
tp848
sI2
(dp849
I0
(S'rule'
I61062
tp850
sI3
(dp851
I0
(S'blue'
I47622
tp852
sssI3
(dp853
I0
(S'else'
I87876
tp854
sI2
(dp855
I0
(S'edge'
I40960
tp856
sI3
(dp857
I0
(S'flee'
I10508
tp858
sI2
(dp859
I0
(S'clue'
I8732
tp860
ssssI3
(dp861
I0
(S'free'
I82090
tp862
sI2
(dp863
I0
(S'urge'
I14894
tp864
ssI3
(dp865
I0
(S'gene'
I15377
tp866
sI2
(dp867
I0
(S'mere'
I10778
tp868
ssI3
(dp869
I0
(S'pure'
I13671
tp870
sI1
(dp871
I0
(S'cure'
I5468
tp872
ssI2
(dp873
I0
(S'cute'
I6089
tp874
sssssssI4
(dp875
I0
(S'lamp'
I7290
tp876
sssI4
(dp877
I0
(S'over'
I300349
tp878
sI1
(dp879
I0
(S'oven'
I11454
tp880
ssI3
(dp881
I0
(S'hour'
I138955
tp882
ssI4
(dp883
I0
(S'hold'
I177368
tp884
sI1
(dp885
I0
(S'holy'
I14090
tp886
ssI2
(dp887
I0
(S'horn'
I7813
tp888
sI2
(dp889
I0
(S'hook'
I7382
tp890
sssI3
(dp891
I0
(S'sand'
I15658
tp892
ssI4
(dp893
I0
(S'camp'
I32659
tp894
sI2
(dp895
I0
(S'damn'
I6269
tp896
ssI3
(dp897
I0
(S'sail'
I6525
tp898
sI2
(dp899
I0
(S'sack'
I5880
tp900
sssssssI4
(dp901
I0
(S'many'
I385348
tp902
sI2
(dp903
I0
(S'easy'
I71602
tp904
sI2
(dp905
I0
(S'baby'
I67881
tp906
sI2
(dp907
I0
(S'lady'
I25436
tp908
sI2
(dp909
I0
(S'vary'
I14954
tp910
sssI3
(dp911
I0
(S'mass'
I18107
tp912
sI1
(dp913
I0
(S'mask'
I11196
tp914
ssssI3
(dp915
I0
(S'land'
I69750
tp916
sI1
(dp917
I0
(S'band'
I29769
tp918
ssI2
(dp919
I0
(S'bank'
I58992
tp920
sI1
(dp921
I0
(S'rank'
I12236
tp922
ssI2
(dp923
I0
(S'gang'
I12662
tp924
sssI3
(dp925
I0
(S'main'
I43707
tp926
sI1
(dp927
I0
(S'mail'
I13024
tp928
ssI2
(dp929
I0
(S'mark'
I21236
tp930
sI2
(dp931
I0
(S'mall'
I10189
tp932
ssssssI3
(dp933
I0
(S'back'
I367844
tp934
sI1
(dp935
I0
(S'lack'
I32157
tp936
sI1
(dp937
I0
(S'pack'
I15169
tp938
sI1
(dp939
I0
(S'rack'
I6677
tp940
ssssI2
(dp941
I0
(S'each'
I196522
tp942
sI3
(dp943
I0
(S'walk'
I113787
tp944
sI2
(dp945
I0
(S'dark'
I47565
tp946
sI1
(dp947
I0
(S'park'
I32322
tp948
ssI3
(dp949
I0
(S'ball'
I43512
tp950
sssI3
(dp951
I0
(S'barn'
I6785
tp952
ssssI3
(dp953
I0
(S'call'
I308050
tp954
sI1
(dp955
I0
(S'fall'
I96908
tp956
sI1
(dp957
I0
(S'wall'
I71390
tp958
ssI2
(dp959
I0
(S'calm'
I6484
tp960
sssI2
(dp961
I0
(S'fail'
I47503
tp962
sI1
(dp963
I0
(S'jail'
I13324
tp964
sI1
(dp965
I0
(S'rail'
I8826
tp966
sI1
(dp967
I0
(S'nail'
I8255
tp968
ssssI3
(dp969
I0
(S'card'
I43605
tp970
sI2
(dp971
I0
(S'cash'
I21343
tp972
ssI3
(dp973
I0
(S'palm'
I11014
tp974
ssssI3
(dp975
I0
(S'pass'
I86184
tp976
sI2
(dp977
I0
(S'pain'
I41350
tp978
sI1
(dp979
I0
(S'pair'
I25289
tp980
ssI3
(dp981
I0
(S'wash'
I16314
tp982
sssI3
(dp983
I0
(S'yard'
I39253
tp984
sI2
(dp985
I0
(S'farm'
I30291
tp986
sI1
(dp987
I0
(S'warm'
I28600
tp988
ssI2
(dp989
I0
(S'earn'
I29560
tp990
sI1
(dp991
I0
(S'warn'
I19996
tp992
ssssI3
(dp993
I0
(S'gain'
I30667
tp994
sI1
(dp995
I0
(S'rain'
I24134
tp996
ssI2
(dp997
I0
(S'fair'
I25064
tp998
sI3
(dp999
I0
(S'lawn'
I10815
tp1000
sI1
(dp1001
I0
(S'dawn'
I6929
tp1002
ssssI3
(dp1003
I0
(S'jazz'
I7220
tp1004
sssssssI4
(dp1005
I0
(S'even'
I361067
tp1006
sI1
(dp1007
I0
(S'ever'
I135774
tp1008
ssI3
(dp1009
I0
(S'area'
I165812
tp1010
sI3
(dp1011
I0
(S'heel'
I10288
tp1012
sssI4
(dp1013
I0
(S'high'
I255936
tp1014
sI2
(dp1015
I0
(S'hill'
I18131
tp1016
ssI3
(dp1017
I0
(S'help'
I216082
tp1018
sI1
(dp1019
I0
(S'hell'
I27278
tp1020
ssI2
(dp1021
I0
(S'hero'
I18348
tp1022
sI1
(dp1023
I0
(S'herb'
I8279
tp1024
sI1
(dp1025
I0
(S'hers'
I7770
tp1026
ssssssssssI4
(dp1027
I0
(S'with'
I2683014
tp1028
sI1
(dp1029
I0
(S'wish'
I37532
tp1030
ssI2
(dp1031
I0
(S'will'
I824568
tp1032
sI1
(dp1033
I0
(S'wild'
I29473
tp1034
ssI2
(dp1035
I0
(S'wind'
I36478
tp1036
sI1
(dp1037
I0
(S'wing'
I19028
tp1038
sssI3
(dp1039
I0
(S'city'
I132684
tp1040
sI3
(dp1041
I0
(S'fish'
I41488
tp1042
sI1
(dp1043
I0
(S'dish'
I18887
tp1044
ssI2
(dp1045
I0
(S'rich'
I35940
tp1046
sI2
(dp1047
I0
(S'sigh'
I10099
tp1048
sssssI4
(dp1049
I0
(S'both'
I146338
tp1050
sI2
(dp1051
I0
(S'myth'
I10161
tp1052
ssssI3
(dp1053
I0
(S'when'
I678626
tp1054
sI2
(dp1055
I0
(S'week'
I199268
tp1056
sI1
(dp1057
I0
(S'weed'
I5642
tp1058
ssI3
(dp1059
I0
(S'whom'
I37950
tp1060
sI2
(dp1061
I0
(S'whip'
I6255
tp1062
ssssI3
(dp1063
I0
(S'well'
I411776
tp1064
sI2
(dp1065
I0
(S'wear'
I77921
tp1066
sI1
(dp1067
I0
(S'weak'
I16628
tp1068
ssI2
(dp1069
I0
(S'west'
I58169
tp1070
ssI3
(dp1071
I0
(S'wolf'
I6718
tp1072
sssI3
(dp1073
I0
(S'work'
I318210
tp1074
sI1
(dp1075
I0
(S'word'
I152891
tp1076
ssI2
(dp1077
I0
(S'wood'
I31801
tp1078
ssI3
(dp1079
I0
(S'wrap'
I17073
tp1080
sssI4
(dp1081
I0
(S'view'
I81338
tp1082
sI2
(dp1083
I0
(S'diet'
I16933
tp1084
ssI3
(dp1085
I0
(S'sign'
I50045
tp1086
sI2
(dp1087
I0
(S'lion'
I6075
tp1088
ssI4
(dp1089
I0
(S'item'
I40336
tp1090
sssI4
(dp1091
I0
(S'twin'
I14610
tp1092
sI3
(dp1093
I0
(S'shit'
I11047
tp1094
sssssI4
(dp1095
I0
(S'into'
I668172
tp1096
sI1
(dp1097
I0
(S'onto'
I43538
tp1098
ssI2
(dp1099
I0
(S'auto'
I10006
tp1100
ssI3
(dp1101
I0
(S'find'
I395203
tp1102
sI1
(dp1103
I0
(S'kind'
I155032
tp1104
sI1
(dp1105
I0
(S'mind'
I82808
tp1106
sI1
(dp1107
I0
(S'bind'
I13109
tp1108
ssssI2
(dp1109
I0
(S'sing'
I38575
tp1110
sI1
(dp1111
I0
(S'ring'
I21873
tp1112
sI1
(dp1113
I0
(S'king'
I14445
tp1114
ssI2
(dp1115
I0
(S'sink'
I11592
tp1116
sssI2
(dp1117
I0
(S'tiny'
I29756
tp1118
sI2
(dp1119
I0
(S'link'
I21335
tp1120
sI1
(dp1121
I0
(S'pink'
I13849
tp1122
ssssI3
(dp1123
I0
(S'fist'
I7729
tp1124
sssI3
(dp1125
I0
(S'list'
I50678
tp1126
sI1
(dp1127
I0
(S'lift'
I29354
tp1128
ssI2
(dp1129
I0
(S'gift'
I27050
tp1130
sI2
(dp1131
I0
(S'dirt'
I12063
tp1132
ssssI4
(dp1133
I0
(S'unit'
I41087
tp1134
sI3
(dp1135
I0
(S'butt'
I5490
tp1136
ssI4
(dp1137
I0
(S'lots'
I23750
tp1138
sI3
(dp1139
I0
(S'duty'
I20204
tp1140
sssssI4
(dp1141
I0
(S'much'
I244507
tp1142
sI1
(dp1143
I0
(S'such'
I207065
tp1144
ssI2
(dp1145
I0
(S'push'
I56103
tp1146
sI1
(dp1147
I0
(S'rush'
I18561
tp1148
sI1
(dp1149
I0
(S'bush'
I6307
tp1150
ssssI3
(dp1151
I0
(S'yeah'
I103389
tp1152
sI4
(dp1153
I0
(S'pick'
I77197
tp1154
sI1
(dp1155
I0
(S'sick'
I20906
tp1156
sI1
(dp1157
I0
(S'kick'
I20092
tp1158
sssI2
(dp1159
I0
(S'milk'
I17812
tp1160
ssI3
(dp1161
I0
(S'miss'
I46525
tp1162
sI2
(dp1163
I0
(S'mild'
I7211
tp1164
sI1
(dp1165
I0
(S'mill'
I5761
tp1166
ssssI4
(dp1167
I0
(S'suit'
I27066
tp1168
sI1
(dp1169
I0
(S'quit'
I13045
tp1170
sssssI4
(dp1171
I0
(S'girl'
I110409
tp1172
sI2
(dp1173
I0
(S'kill'
I92660
tp1174
sI1
(dp1175
I0
(S'fill'
I56915
tp1176
sI1
(dp1177
I0
(S'bill'
I49011
tp1178
sI1
(dp1179
I0
(S'pill'
I8537
tp1180
ssssI3
(dp1181
I0
(S'firm'
I44704
tp1182
sI2
(dp1183
I0
(S'bird'
I34835
tp1184
ssssI3
(dp1185
I0
(S'film'
I66724
tp1186
sI2
(dp1187
I0
(S'silk'
I7128
tp1188
ssI3
(dp1189
I0
(S'risk'
I60432
tp1190
sI1
(dp1191
I0
(S'disk'
I7898
tp1192
ssI2
(dp1193
I0
(S'kiss'
I16128
tp1194
ssI3
(dp1195
I0
(S'limb'
I8018
tp1196
sI3
(dp1197
I0
(S'bias'
I7388
tp1198
sssssI4
(dp1199
I0
(S'swim'
I11342
tp1200
sI3
(dp1201
I0
(S'exit'
I7333
tp1202
sI1
(dp1203
I0
(S'edit'
I6157
tp1204
ssssssssI4
(dp1205
I0
(S'this'
I1885366
tp1206
sI1
(dp1207
I0
(S'thus'
I57039
tp1208
sI2
(dp1209
I0
(S'thin'
I23194
tp1210
sssI2
(dp1211
I0
(S'they'
I1865580
tp1212
sI1
(dp1213
I0
(S'them'
I677870
tp1214
sI1
(dp1215
I0
(S'then'
I543977
tp1216
sssI3
(dp1217
I0
(S'trip'
I40423
tp1218
sI2
(dp1219
I0
(S'ship'
I32588
tp1220
sI1
(dp1221
I0
(S'chip'
I16162
tp1222
sssI3
(dp1223
I0
(S'toss'
I14565
tp1224
sI4
(dp1225
I0
(S'chin'
I7585
tp1226
sssssI3
(dp1227
I0
(S'tell'
I388155
tp1228
sI1
(dp1229
I0
(S'toll'
I5587
tp1230
ssI2
(dp1231
I0
(S'team'
I131489
tp1232
sI1
(dp1233
I0
(S'term'
I62962
tp1234
sI2
(dp1235
I0
(S'tear'
I19819
tp1236
sssI2
(dp1237
I0
(S'test'
I69870
tp1238
sI1
(dp1239
I0
(S'text'
I32316
tp1240
sI1
(dp1241
I0
(S'tent'
I10110
tp1242
sssI2
(dp1243
I0
(S'tend'
I38295
tp1244
sI2
(dp1245
I0
(S'teen'
I12663
tp1246
ssssI3
(dp1247
I0
(S'tool'
I30286
tp1248
sssI3
(dp1249
I0
(S'turn'
I221392
tp1250
sI2
(dp1251
I0
(S'town'
I79821
tp1252
sI2
(dp1253
I0
(S'tour'
I25781
tp1254
ssI3
(dp1255
I0
(S'tuck'
I6847
tp1256
sssI3
(dp1257
I0
(S'trap'
I8030
tp1258
sI1
(dp1259
I0
(S'tray'
I6021
tp1260
sssI4
(dp1261
I0
(S'less'
I82930
tp1262
sI1
(dp1263
I0
(S'mess'
I8745
tp1264
sI2
(dp1265
I0
(S'lens'
I8313
tp1266
sssI2
(dp1267
I0
(S'news'
I70051
tp1268
ssI4
(dp1269
I0
(S'soil'
I20916
tp1270
sI1
(dp1271
I0
(S'boil'
I6180
tp1272
ssI2
(dp1273
I0
(S'evil'
I8391
tp1274
sssssI4
(dp1275
I0
(S'show'
I208037
tp1276
sI1
(dp1277
I0
(S'shot'
I37505
tp1278
sI1
(dp1279
I0
(S'shop'
I28589
tp1280
sssI2
(dp1281
I0
(S'shut'
I24773
tp1282
sI2
(dp1283
I0
(S'shed'
I5769
tp1284
ssI3
(dp1285
I0
(S'chop'
I7452
tp1286
sI2
(dp1287
I0
(S'chew'
I5669
tp1288
ssssI3
(dp1289
I0
(S'skin'
I39893
tp1290
sI1
(dp1291
I0
(S'spin'
I12673
tp1292
sI2
(dp1293
I0
(S'skip'
I5635
tp1294
sssI2
(dp1295
I0
(S'slip'
I21233
tp1296
sI2
(dp1297
I0
(S'stir'
I20174
tp1298
sssI4
(dp1299
I0
(S'chef'
I10131
tp1300
sssI4
(dp1301
I0
(S'join'
I80609
tp1302
sI1
(dp1303
I0
(S'coin'
I5947
tp1304
ssI2
(dp1305
I0
(S'grin'
I7242
tp1306
sI2
(dp1307
I0
(S'ruin'
I6267
tp1308
sssI3
(dp1309
I0
(S'loss'
I49759
tp1310
sI1
(dp1311
I0
(S'boss'
I14587
tp1312
ssI4
(dp1313
I0
(S'acid'
I9772
tp1314
sI1
(dp1315
I0
(S'amid'
I7264
tp1316
ssI3
(dp1317
I0
(S'grip'
I7724
tp1318
sI2
(dp1319
I0
(S'flip'
I7274
tp1320
sI1
(dp1321
I0
(S'clip'
I6660
tp1322
ssssssI4
(dp1323
I0
(S'plus'
I17202
tp1324
sI3
(dp1325
I0
(S'odds'
I9094
tp1326
sI2
(dp1327
I0
(S'ours'
I6422
tp1328
sssssssI4
(dp1329
I0
(S'from'
I1635914
tp1330
sI2
(dp1331
I0
(S'room'
I172472
tp1332
sI1
(dp1333
I0
(S'boom'
I9457
tp1334
ssI2
(dp1335
I0
(S'food'
I107728
tp1336
sI1
(dp1337
I0
(S'foot'
I107285
tp1338
sI1
(dp1339
I0
(S'fool'
I6990
tp1340
sssI2
(dp1341
I0
(S'form'
I78493
tp1342
sssI3
(dp1343
I0
(S'grow'
I110020
tp1344
sI2
(dp1345
I0
(S'drop'
I56448
tp1346
sI1
(dp1347
I0
(S'crop'
I13733
tp1348
ssI2
(dp1349
I0
(S'iron'
I15043
tp1350
ssI3
(dp1351
I0
(S'flow'
I18469
tp1352
sssI3
(dp1353
I0
(S'drum'
I6423
tp1354
ssssI3
(dp1355
I0
(S'know'
I892535
tp1356
sI1
(dp1357
I0
(S'snow'
I21011
tp1358
ssI2
(dp1359
I0
(S'blow'
I27254
tp1360
sI1
(dp1361
I0
(S'slow'
I20404
tp1362
sssI3
(dp1363
I0
(S'look'
I491707
tp1364
sI1
(dp1365
I0
(S'book'
I154013
tp1366
sI1
(dp1367
I0
(S'cook'
I27725
tp1368
ssI2
(dp1369
I0
(S'loop'
I6175
tp1370
sssI2
(dp1371
I0
(S'good'
I353973
tp1372
sI1
(dp1373
I0
(S'mood'
I14227
tp1374
ssI2
(dp1375
I0
(S'door'
I124993
tp1376
sI1
(dp1377
I0
(S'poor'
I53820
tp1378
ssI2
(dp1379
I0
(S'soon'
I63168
tp1380
sI1
(dp1381
I0
(S'moon'
I13959
tp1382
sI1
(dp1383
I0
(S'noon'
I7425
tp1384
sssI2
(dp1385
I0
(S'cool'
I26279
tp1386
sI1
(dp1387
I0
(S'pool'
I23346
tp1388
ssI2
(dp1389
I0
(S'root'
I20774
tp1390
sI1
(dp1391
I0
(S'roof'
I16520
tp1392
sI2
(dp1393
I0
(S'boot'
I15033
tp1394
ssssssssI3
(dp1395
I0
(S'stop'
I121481
tp1396
sI1
(dp1397
I0
(S'atop'
I5578
tp1398
ssI2
(dp1399
I0
(S'spot'
I31612
tp1400
ssI3
(dp1401
I0
(S'upon'
I57033
tp1402
sI2
(dp1403
I0
(S'icon'
I6030
tp1404
ssI3
(dp1405
I0
(S'plot'
I10484
tp1406
sssI4
(dp1407
I0
(S'norm'
I9360
tp1408
sssI4
(dp1409
I0
(S'draw'
I65198
tp1410
sI2
(dp1411
I0
(S'crew'
I21238
tp1412
ssssI4
(dp1413
I0
(S'feel'
I275214
tp1414
sI1
(dp1415
I0
(S'feed'
I28494
tp1416
sI2
(dp1417
I0
(S'fuel'
I23934
tp1418
sssI2
(dp1419
I0
(S'seem'
I219627
tp1420
sI1
(dp1421
I0
(S'deem'
I5639
tp1422
ssI3
(dp1423
I0
(S'fear'
I38857
tp1424
ssI4
(dp1425
I0
(S'full'
I77547
tp1426
sssI3
(dp1427
I0
(S'four'
I150646
tp1428
sI2
(dp1429
I0
(S'folk'
I28698
tp1430
sI1
(dp1431
I0
(S'fold'
I8630
tp1432
sI2
(dp1433
I0
(S'fork'
I7742
tp1434
ssssI3
(dp1435
I0
(S'fund'
I53859
tp1436
sI3
(dp1437
I0
(S'flag'
I13655
tp1438
sI1
(dp1439
I0
(S'flat'
I12899
tp1440
sssI4
(dp1441
I0
(S'roll'
I31592
tp1442
sI3
(dp1443
I0
(S'poem'
I13702
tp1444
ssssI4
(dp1445
I0
(S'stem'
I8963
tp1446
sI3
(dp1447
I0
(S'beam'
I7625
tp1448
ssI4
(dp1449
I0
(S'oral'
I7448
tp1450
ssssI4
(dp1451
I0
(S'drug'
I86231
tp1452
sI1
(dp1453
I0
(S'drag'
I16685
tp1454
ssI3
(dp1455
I0
(S'grab'
I26951
tp1456
sI1
(dp1457
I0
(S'gray'
I19408
tp1458
sI2
(dp1459
I0
(S'Arab'
I16732
tp1460
sssI2
(dp1461
I0
(S'pray'
I14006
tp1462
ssI3
(dp1463
I0
(S'army'
I23929
tp1464
sssI4
(dp1465
I0
(S'road'
I80987
tp1466
sI2
(dp1467
I0
(S'rock'
I45225
tp1468
ssI3
(dp1469
I0
(S'bomb'
I18284
tp1470
sI4
(dp1471
I0
(S'slam'
I9076
tp1472
sI2
(dp1473
I0
(S'exam'
I6176
tp1474
ssssssssI4
(dp1475
I0
(S'year'
I769254
tp1476
sI1
(dp1477
I0
(S'near'
I54869
tp1478
sI1
(dp1479
I0
(S'bear'
I22190
tp1480
sI1
(dp1481
I0
(S'gear'
I12872
tp1482
sI1
(dp1483
I0
(S'dear'
I9151
tp1484
sI1
(dp1485
I0
(S'rear'
I6910
tp1486
ssssssI2
(dp1487
I0
(S'your'
I659622
tp1488
sI2
(dp1489
I0
(S'soar'
I5344
tp1490
ssI3
(dp1491
I0
(S'star'
I73695
tp1492
sI3
(dp1493
I0
(S'beer'
I19349
tp1494
sI1
(dp1495
I0
(S'peer'
I14738
tp1496
sI1
(dp1497
I0
(S'deer'
I11665
tp1498
ssssI4
(dp1499
I0
(S'yell'
I13131
tp1500
sssI4
(dp1501
I0
(S'mean'
I242198
tp1502
sI1
(dp1503
I0
(S'lean'
I26896
tp1504
sI1
(dp1505
I0
(S'bean'
I14996
tp1506
ssI2
(dp1507
I0
(S'meal'
I21556
tp1508
sI1
(dp1509
I0
(S'meat'
I20271
tp1510
ssssI2
(dp1511
I0
(S'real'
I124187
tp1512
sI1
(dp1513
I0
(S'read'
I114094
tp1514
sI2
(dp1515
I0
(S'deal'
I57462
tp1516
sI1
(dp1517
I0
(S'seal'
I6660
tp1518
ssssI2
(dp1519
I0
(S'lead'
I122691
tp1520
sI1
(dp1521
I0
(S'dead'
I55111
tp1522
sI2
(dp1523
I0
(S'leaf'
I24044
tp1524
sI1
(dp1525
I0
(S'leap'
I8376
tp1526
ssssI2
(dp1527
I0
(S'seat'
I44404
tp1528
sI1
(dp1529
I0
(S'beat'
I38268
tp1530
sI1
(dp1531
I0
(S'neat'
I5359
tp1532
sssI2
(dp1533
I0
(S'peak'
I14481
tp1534
sssssssI3
(dp1535
I0
(S'very'
I391821
tp1536
sI2
(dp1537
I0
(S'deny'
I26675
tp1538
sI2
(dp1539
I0
(S'rely'
I19614
tp1540
sI2
(dp1541
I0
(S'sexy'
I6300
tp1542
ssssI3
(dp1543
I0
(S'need'
I276744
tp1544
sI1
(dp1545
I0
(S'seed'
I19079
tp1546
ssI2
(dp1547
I0
(S'keep'
I231760
tp1548
sI1
(dp1549
I0
(S'deep'
I40126
tp1550
ssI2
(dp1551
I0
(S'meet'
I128737
tp1552
sI2
(dp1553
I0
(S'seek'
I58495
tp1554
sI2
(dp1555
I0
(S'beef'
I8416
tp1556
sI2
(dp1557
I0
(S'peel'
I7182
tp1558
sssssI3
(dp1559
I0
(S'next'
I176306
tp1560
sI1
(dp1561
I0
(S'nest'
I6541
tp1562
ssI2
(dp1563
I0
(S'neck'
I25716
tp1564
ssI3
(dp1565
I0
(S'send'
I96613
tp1566
sI1
(dp1567
I0
(S'bend'
I16285
tp1568
sI1
(dp1569
I0
(S'lend'
I7961
tp1570
ssssssI3
(dp1571
I0
(S'best'
I124850
tp1572
sI1
(dp1573
I0
(S'rest'
I56714
tp1574
sI2
(dp1575
I0
(S'belt'
I13826
tp1576
sssI2
(dp1577
I0
(S'left'
I50479
tp1578
sI2
(dp1579
I0
(S'debt'
I19506
tp1580
sI2
(dp1581
I0
(S'rent'
I8446
tp1582
sI2
(dp1583
I0
(S'melt'
I8533
tp1584
ssssI3
(dp1585
I0
(S'desk'
I23455
tp1586
sI3
(dp1587
I0
(S'bell'
I12421
tp1588
ssssI3
(dp1589
I0
(S'sell'
I87865
tp1590
sI1
(dp1591
I0
(S'cell'
I44831
tp1592
sI2
(dp1593
I0
(S'self'
I16708
tp1594
sssI3
(dp1595
I0
(S'deck'
I11830
tp1596
sI3
(dp1597
I0
(S'menu'
I10238
tp1598
ssssI4
(dp1599
I0
(S'user'
I20681
tp1600
sssI4
(dp1601
I0
(S'play'
I188328
tp1602
sI2
(dp1603
I0
(S'away'
I144713
tp1604
sI2
(dp1605
I0
(S'stay'
I96933
tp1606
sI2
(dp1607
I0
(S'okay'
I24243
tp1608
ssssssI4
(dp1609
I0
(S'idea'
I122140
tp1610
sI4
(dp1611
I0
(S'plan'
I95824
tp1612
sI2
(dp1613
I0
(S'loan'
I22324
tp1614
sI2
(dp1615
I0
(S'scan'
I6879
tp1616
ssI3
(dp1617
I0
(S'glad'
I15556
tp1618
sI2
(dp1619
I0
(S'slap'
I7015
tp1620
ssssI3
(dp1621
I0
(S'goal'
I58728
tp1622
sI1
(dp1623
I0
(S'coal'
I8928
tp1624
sI2
(dp1625
I0
(S'goat'
I5459
tp1626
sssI2
(dp1627
I0
(S'boat'
I32079
tp1628
sI1
(dp1629
I0
(S'coat'
I16010
tp1630
ssI2
(dp1631
I0
(S'load'
I10736
tp1632
sI2
(dp1633
I0
(S'soap'
I5952
tp1634
ssssI3
(dp1635
I0
(S'pour'
I19300
tp1636
sI4
(dp1637
I0
(S'snap'
I13362
tp1638
sssssssI4
(dp1639
I0
(S'just'
I677711
tp1640
sI1
(dp1641
I0
(S'must'
I171043
tp1642
sI1
(dp1643
I0
(S'dust'
I15475
tp1644
sssI2
(dp1645
I0
(S'most'
I246360
tp1646
sI1
(dp1647
I0
(S'cost'
I73512
tp1648
sI1
(dp1649
I0
(S'post'
I15693
tp1650
sI1
(dp1651
I0
(S'lost'
I11886
tp1652
ssssI3
(dp1653
I0
(S'busy'
I18500
tp1654
sI3
(dp1655
I0
(S'aunt'
I6662
tp1656
sssI4
(dp1657
I0
(S'jump'
I28504
tp1658
sI2
(dp1659
I0
(S'jury'
I24072
tp1660
ssssI3
(dp1661
I0
(S'also'
I464606
tp1662
sI4
(dp1663
I0
(S'pull'
I87243
tp1664
sI1
(dp1665
I0
(S'bull'
I6346
tp1666
ssI2
(dp1667
I0
(S'pump'
I8617
tp1668
sI3
(dp1669
I0
(S'bulk'
I5324
tp1670
sssI3
(dp1671
I0
(S'burn'
I26646
tp1672
sI1
(dp1673
I0
(S'bury'
I14030
tp1674
ssI2
(dp1675
I0
(S'buck'
I13693
tp1676
ssI3
(dp1677
I0
(S'luck'
I14186
tp1678
sI1
(dp1679
I0
(S'duck'
I8335
tp1680
sI1
(dp1681
I0
(S'suck'
I8204
tp1682
sssI2
(dp1683
I0
(S'lung'
I9206
tp1684
ssI3
(dp1685
I0
(S'dump'
I7689
tp1686
sI1
(dp1687
I0
(S'dumb'
I5486
tp1688
sssI4
(dp1689
I0
(S'port'
I11893
tp1690
sssI4
(dp1691
I0
(S'poet'
I10840
tp1692
sssI4
(dp1693
I0
(S'sort'
I47086
tp1694
sI1
(dp1695
I0
(S'soft'
I27970
tp1696
ssI4
(dp1697
I0
(S'used'
I19130
tp1698
sssssI4
(dp1699
I0
(S'only'
I379574
tp1700
sI2
(dp1701
I0
(S'ally'
I14025
tp1702
sI2
(dp1703
I0
(S'ugly'
I9267
tp1704
sssI3
(dp1705
I0
(S'long'
I149050
tp1706
sI1
(dp1707
I0
(S'song'
I45352
tp1708
ssI2
(dp1709
I0
(S'bond'
I19856
tp1710
sI1
(dp1711
I0
(S'pond'
I7971
tp1712
sssI3
(dp1713
I0
(S'body'
I125165
tp1714
sI2
(dp1715
I0
(S'bowl'
I20662
tp1716
sI2
(dp1717
I0
(S'bold'
I6936
tp1718
ssI3
(dp1719
I0
(S'copy'
I18244
tp1720
sssI3
(dp1721
I0
(S'cold'
I44649
tp1722
sI1
(dp1723
I0
(S'gold'
I30733
tp1724
ssI2
(dp1725
I0
(S'poll'
I24009
tp1726
sI1
(dp1727
I0
(S'doll'
I7351
tp1728
ssI2
(dp1729
I0
(S'golf'
I20979
tp1730
sssI3
(dp1731
I0
(S'soul'
I22713
tp1732
ssssI4
(dp1733
I0
(S'open'
I111857
tp1734
sssI4
(dp1735
I0
(S'down'
I329409
tp1736
sI2
(dp1737
I0
(S'born'
I35352
tp1738
sI1
(dp1739
I0
(S'corn'
I13739
tp1740
sssI3
(dp1741
I0
(S'lock'
I15616
tp1742
sI1
(dp1743
I0
(S'sock'
I6273
tp1744
ssI2
(dp1745
I0
(S'loud'
I10324
tp1746
sI3
(dp1747
I0
(S'pork'
I6261
tp1748
sssI3
(dp1749
I0
(S'soup'
I10571
tp1750
sI1
(dp1751
I0
(S'coup'
I6179
tp1752
ssI3
(dp1753
I0
(S'cord'
I6071
tp1754
ssssI4
(dp1755
I0
(S'step'
I66232
tp1756
sI4
(dp1757
I0
(S'club'
I30800
tp1758
sI4
(dp1759
I0
(S'AIDS'
I19384
tp1760
sI4
(dp1761
I0
(S'echo'
I8477
tp1762
sssssssssssssI5
(dp1763
I0
(S'their'
I1083029
tp1764
sI2
(dp1765
I0
(S'there'
I784528
tp1766
sI1
(dp1767
I0
(S'these'
I513864
tp1768
sI1
(dp1769
I0
(S'theme'
I22494
tp1770
sssI2
(dp1771
I0
(S'other'
I547799
tp1772
sI3
(dp1773
I0
(S'third'
I67037
tp1774
sssI3
(dp1775
I0
(S'sheer'
I6209
tp1776
sI1
(dp1777
I0
(S'cheer'
I5442
tp1778
sssI4
(dp1779
I0
(S'chair'
I43256
tp1780
sssI3
(dp1781
I0
(S'think'
I772787
tp1782
sI1
(dp1783
I0
(S'thing'
I400724
tp1784
sI2
(dp1785
I0
(S'thank'
I88574
tp1786
sI2
(dp1787
I0
(S'thick'
I21932
tp1788
ssssI2
(dp1789
I0
(S'thigh'
I6576
tp1790
ssI3
(dp1791
I0
(S'those'
I378007
tp1792
sI2
(dp1793
I0
(S'three'
I266744
tp1794
ssI3
(dp1795
I0
(S'throw'
I57784
tp1796
sI3
(dp1797
I0
(S'thumb'
I7659
tp1798
sssI4
(dp1799
I0
(S'check'
I45760
tp1800
sI1
(dp1801
I0
(S'cheek'
I13411
tp1802
ssI3
(dp1803
I0
(S'chain'
I19688
tp1804
ssI4
(dp1805
I0
(S'trend'
I21894
tp1806
sI5
(dp1807
I0
(S'shirt'
I21486
tp1808
sssI5
(dp1809
I0
(S'train'
I23990
tp1810
ssssI4
(dp1811
I0
(S'where'
I213744
tp1812
sI2
(dp1813
I0
(S'wheel'
I18296
tp1814
sI2
(dp1815
I0
(S'wheat'
I5730
tp1816
sssI3
(dp1817
I0
(S'ahead'
I39705
tp1818
sI2
(dp1819
I0
(S'cheap'
I18371
tp1820
sI1
(dp1821
I0
(S'cheat'
I5819
tp1822
sssI3
(dp1823
I0
(S'chest'
I22508
tp1824
sI2
(dp1825
I0
(S'sheet'
I20787
tp1826
ssI3
(dp1827
I0
(S'shell'
I12957
tp1828
sI1
(dp1829
I0
(S'shelf'
I10741
tp1830
ssI2
(dp1831
I0
(S'sheep'
I6320
tp1832
ssssI4
(dp1833
I0
(S'weird'
I7709
tp1834
sssI4
(dp1835
I0
(S'treat'
I40264
tp1836
sI4
(dp1837
I0
(S'tower'
I13948
tp1838
sssI5
(dp1839
I0
(S'trail'
I23030
tp1840
sI1
(dp1841
I0
(S'trait'
I7980
tp1842
ssI3
(dp1843
I0
(S'topic'
I20640
tp1844
sI1
(dp1845
I0
(S'toxic'
I6672
tp1846
ssI4
(dp1847
I0
(S'stair'
I12171
tp1848
sssI4
(dp1849
I0
(S'tumor'
I6427
tp1850
ssssI5
(dp1851
I0
(S'heart'
I84536
tp1852
sI3
(dp1853
I0
(S'clear'
I68662
tp1854
sI2
(dp1855
I0
(S'swear'
I9181
tp1856
sssI4
(dp1857
I0
(S'steer'
I5452
tp1858
ssssI4
(dp1859
I0
(S'which'
I685982
tp1860
sI2
(dp1861
I0
(S'while'
I234555
tp1862
sI1
(dp1863
I0
(S'white'
I126760
tp1864
ssI3
(dp1865
I0
(S'weigh'
I13051
tp1866
sssI3
(dp1867
I0
(S'child'
I333849
tp1868
sI1
(dp1869
I0
(S'chill'
I5675
tp1870
ssI2
(dp1871
I0
(S'chief'
I26456
tp1872
ssI3
(dp1873
I0
(S'whole'
I83756
tp1874
sI1
(dp1875
I0
(S'whale'
I6928
tp1876
ssI3
(dp1877
I0
(S'shine'
I8984
tp1878
ssI4
(dp1879
I0
(S'shift'
I21323
tp1880
sssI4
(dp1881
I0
(S'whose'
I74914
tp1882
sI3
(dp1883
I0
(S'shock'
I14551
tp1884
ssI4
(dp1885
I0
(S'twice'
I26450
tp1886
ssI5
(dp1887
I0
(S'trick'
I10041
tp1888
sssI5
(dp1889
I0
(S'teach'
I72668
tp1890
sI2
(dp1891
I0
(S'touch'
I34737
tp1892
ssssI4
(dp1893
I0
(S'water'
I167666
tp1894
sI4
(dp1895
I0
(S'share'
I54010
tp1896
sI1
(dp1897
I0
(S'shake'
I45160
tp1898
sI1
(dp1899
I0
(S'shape'
I30396
tp1900
sI1
(dp1901
I0
(S'shade'
I10677
tp1902
sI1
(dp1903
I0
(S'shame'
I7347
tp1904
sssssI2
(dp1905
I0
(S'phase'
I16045
tp1906
sI1
(dp1907
I0
(S'chase'
I8980
tp1908
sssI3
(dp1909
I0
(S'trace'
I10033
tp1910
ssI4
(dp1911
I0
(S'await'
I7550
tp1912
ssI5
(dp1913
I0
(S'basic'
I34788
tp1914
sI2
(dp1915
I0
(S'magic'
I8506
tp1916
sI2
(dp1917
I0
(S'panic'
I6087
tp1918
sssI5
(dp1919
I0
(S'prior'
I11746
tp1920
ssssI5
(dp1921
I0
(S'music'
I102657
tp1922
sI3
(dp1923
I0
(S'logic'
I8646
tp1924
sI3
(dp1925
I0
(S'civic'
I7088
tp1926
sssI5
(dp1927
I0
(S'phone'
I71599
tp1928
sI2
(dp1929
I0
(S'photo'
I25492
tp1930
sI3
(dp1931
I0
(S'shore'
I9191
tp1932
sI1
(dp1933
I0
(S'shove'
I6327
tp1934
ssssI3
(dp1935
I0
(S'piece'
I68901
tp1936
sI3
(dp1937
I0
(S'hence'
I8468
tp1938
ssI5
(dp1939
I0
(S'short'
I60451
tp1940
sI1
(dp1941
I0
(S'shoot'
I53038
tp1942
sI1
(dp1943
I0
(S'shout'
I17239
tp1944
sssI2
(dp1945
I0
(S'ghost'
I9564
tp1946
ssI4
(dp1947
I0
(S'chunk'
I5682
tp1948
ssssI4
(dp1949
I0
(S'being'
I21695
tp1950
sI3
(dp1951
I0
(S'seize'
I9106
tp1952
ssI4
(dp1953
I0
(S'tribe'
I10855
tp1954
sI5
(dp1955
I0
(S'shrug'
I10689
tp1956
sssI5
(dp1957
I0
(S'tooth'
I20515
tp1958
sI5
(dp1959
I0
(S'sharp'
I17403
tp1960
sI1
(dp1961
I0
(S'shark'
I6164
tp1962
ssI2
(dp1963
I0
(S'shall'
I15997
tp1964
sI3
(dp1965
I0
(S'chart'
I11861
tp1966
sssI3
(dp1967
I0
(S'chaos'
I7304
tp1968
sssssI5
(dp1969
I0
(S'truth'
I45155
tp1970
sI2
(dp1971
I0
(S'tough'
I39600
tp1972
sI3
(dp1973
I0
(S'truck'
I31536
tp1974
sI3
(dp1975
I0
(S'trash'
I5811
tp1976
ssssI3
(dp1977
I0
(S'trial'
I44489
tp1978
sI3
(dp1979
I0
(S'track'
I33788
tp1980
ssI4
(dp1981
I0
(S'fresh'
I35974
tp1982
sssI4
(dp1983
I0
(S'tight'
I11641
tp1984
sI3
(dp1985
I0
(S'twist'
I7875
tp1986
ssI5
(dp1987
I0
(S'flesh'
I9867
tp1988
sssI5
(dp1989
I0
(S'elect'
I15350
tp1990
sI4
(dp1991
I0
(S'skirt'
I8167
tp1992
sssssssI5
(dp1993
I0
(S'after'
I311902
tp1994
sI1
(dp1995
I0
(S'alter'
I11106
tp1996
ssI2
(dp1997
I0
(S'later'
I126495
tp1998
sI2
(dp1999
I0
(S'enter'
I54479
tp2000
sI2
(dp2001
I0
(S'voter'
I27768
tp2002
sI2
(dp2003
I0
(S'meter'
I10246
tp2004
sI2
(dp2005
I0
(S'outer'
I7618
tp2006
sssssI3
(dp2007
I0
(S'offer'
I106473
tp2008
sI3
(dp2009
I0
(S'anger'
I14241
tp2010
ssI4
(dp2011
I0
(S'actor'
I24848
tp2012
ssssI3
(dp2013
I0
(S'never'
I262584
tp2014
sI1
(dp2015
I0
(S'fever'
I5874
tp2016
ssI2
(dp2017
I0
(S'cover'
I69387
tp2018
sI1
(dp2019
I0
(S'lover'
I11499
tp2020
ssI2
(dp2021
I0
(S'river'
I28862
tp2022
sI1
(dp2023
I0
(S'liver'
I5415
tp2024
sssI3
(dp2025
I0
(S'refer'
I34317
tp2026
sI2
(dp2027
I0
(S'fewer'
I18223
tp2028
ssssI3
(dp2029
I0
(S'under'
I164766
tp2030
sI2
(dp2031
I0
(S'order'
I56483
tp2032
sI2
(dp2033
I0
(S'rider'
I7450
tp2034
sI2
(dp2035
I0
(S'elder'
I6808
tp2036
sssI3
(dp2037
I0
(S'upper'
I18196
tp2038
sI3
(dp2039
I0
(S'inner'
I13545
tp2040
ssssI3
(dp2041
I0
(S'power'
I141357
tp2042
sI1
(dp2043
I0
(S'lower'
I17206
tp2044
ssI2
(dp2045
I0
(S'paper'
I75383
tp2046
sI3
(dp2047
I0
(S'owner'
I39492
tp2048
sssI3
(dp2049
I0
(S'layer'
I16250
tp2050
sI1
(dp2051
I0
(S'laser'
I7197
tp2052
ssI2
(dp2053
I0
(S'maker'
I14586
tp2054
sI2
(dp2055
I0
(S'eager'
I9627
tp2056
ssI3
(dp2057
I0
(S'buyer'
I10953
tp2058
sssI3
(dp2059
I0
(S'fiber'
I13606
tp2060
sI3
(dp2061
I0
(S'super'
I12586
tp2062
ssssssI4
(dp2063
I0
(S'motor'
I9977
tp2064
ssI5
(dp2065
I0
(S'taste'
I17409
tp2066
sssI4
(dp2067
I0
(S'every'
I212739
tp2068
sI3
(dp2069
I0
(S'opera'
I7332
tp2070
sI3
(dp2071
I0
(S'clerk'
I7234
tp2072
sssI4
(dp2073
I0
(S'field'
I87243
tp2074
sI3
(dp2075
I0
(S'speed'
I27740
tp2076
sI3
(dp2077
I0
(S'fleet'
I5781
tp2078
sssI4
(dp2079
I0
(S'green'
I44673
tp2080
sI1
(dp2081
I0
(S'greet'
I8367
tp2082
ssI2
(dp2083
I0
(S'Greek'
I6642
tp2084
sI3
(dp2085
I0
(S'queen'
I6606
tp2086
sssI3
(dp2087
I0
(S'sleep'
I34801
tp2088
sI1
(dp2089
I0
(S'sweep'
I12431
tp2090
sI1
(dp2091
I0
(S'steep'
I6972
tp2092
sssI2
(dp2093
I0
(S'sweet'
I23843
tp2094
sI2
(dp2095
I0
(S'steel'
I15982
tp2096
sssI4
(dp2097
I0
(S'arena'
I8008
tp2098
sssI4
(dp2099
I0
(S'agent'
I38265
tp2100
sI4
(dp2101
I0
(S'steal'
I20296
tp2102
sI1
(dp2103
I0
(S'steam'
I6426
tp2104
sI1
(dp2105
I0
(S'steak'
I5596
tp2106
sssssI5
(dp2107
I0
(S'avoid'
I42890
tp2108
sI3
(dp2109
I0
(S'favor'
I13235
tp2110
ssssI5
(dp2111
I0
(S'terms'
I30996
tp2112
sI4
(dp2113
I0
(S'error'
I15980
tp2114
ssssI5
(dp2115
I0
(S'again'
I206895
tp2116
sI3
(dp2117
I0
(S'admit'
I35143
tp2118
sI4
(dp2119
I0
(S'Latin'
I13797
tp2120
sssI4
(dp2121
I0
(S'until'
I140819
tp2122
sI3
(dp2123
I0
(S'ratio'
I10457
tp2124
ssI5
(dp2125
I0
(S'sugar'
I24310
tp2126
sssI5
(dp2127
I0
(S'major'
I87487
tp2128
sI1
(dp2129
I0
(S'mayor'
I13903
tp2130
ssI2
(dp2131
I0
(S'labor'
I34400
tp2132
sI3
(dp2133
I0
(S'minor'
I12346
tp2134
sssI3
(dp2135
I0
(S'floor'
I62458
tp2136
sI3
(dp2137
I0
(S'color'
I56978
tp2138
sI2
(dp2139
I0
(S'honor'
I16686
tp2140
sI1
(dp2141
I0
(S'donor'
I7231
tp2142
sssI3
(dp2143
I0
(S'humor'
I9654
tp2144
sI1
(dp2145
I0
(S'rumor'
I8023
tp2146
ssI2
(dp2147
I0
(S'juror'
I7497
tp2148
sssssI4
(dp2149
I0
(S'table'
I75228
tp2150
sI5
(dp2151
I0
(S'occur'
I52768
tp2152
sI3
(dp2153
I0
(S'flour'
I9103
tp2154
ssI4
(dp2155
I0
(S'solar'
I12121
tp2156
ssssI5
(dp2157
I0
(S'total'
I38798
tp2158
sI2
(dp2159
I0
(S'towel'
I7978
tp2160
ssI3
(dp2161
I0
(S'title'
I29210
tp2162
ssI4
(dp2163
I0
(S'tired'
I18597
tp2164
ssssssI5
(dp2165
I0
(S'great'
I225005
tp2166
sI2
(dp2167
I0
(S'break'
I79310
tp2168
sI1
(dp2169
I0
(S'bread'
I16686
tp2170
ssI2
(dp2171
I0
(S'dream'
I39613
tp2172
sI1
(dp2173
I0
(S'cream'
I18443
tp2174
sssI3
(dp2175
I0
(S'sweat'
I8036
tp2176
ssI4
(dp2177
I0
(S'guest'
I29328
tp2178
sssI3
(dp2179
I0
(S'speak'
I117358
tp2180
sI1
(dp2181
I0
(S'sneak'
I5690
tp2182
ssI3
(dp2183
I0
(S'clean'
I24325
tp2184
sI2
(dp2185
I0
(S'ocean'
I19421
tp2186
sI3
(dp2187
I0
(S'plead'
I8140
tp2188
sssI3
(dp2189
I0
(S'ideal'
I11609
tp2190
ssI4
(dp2191
I0
(S'scent'
I6050
tp2192
sssI4
(dp2193
I0
(S'event'
I75559
tp2194
sI3
(dp2195
I0
(S'quest'
I6613
tp2196
ssI4
(dp2197
I0
(S'guess'
I48046
tp2198
sI2
(dp2199
I0
(S'press'
I33410
tp2200
sI1
(dp2201
I0
(S'dress'
I26669
tp2202
sssssI5
(dp2203
I0
(S'fruit'
I22401
tp2204
sI2
(dp2205
I0
(S'trust'
I19482
tp2206
sI3
(dp2207
I0
(S'orbit'
I6490
tp2208
sssI3
(dp2209
I0
(S'grain'
I9520
tp2210
ssssI4
(dp2211
I0
(S'today'
I183724
tp2212
sI3
(dp2213
I0
(S'truly'
I20576
tp2214
ssI4
(dp2215
I0
(S'trade'
I49696
tp2216
sI3
(dp2217
I0
(S'troop'
I36001
tp2218
sI3
(dp2219
I0
(S'trunk'
I8400
tp2220
sssI4
(dp2221
I0
(S'heavy'
I39160
tp2222
ssI5
(dp2223
I0
(S'enemy'
I22621
tp2224
sssI5
(dp2225
I0
(S'learn'
I124346
tp2226
sI2
(dp2227
I0
(S'beard'
I5528
tp2228
ssI3
(dp2229
I0
(S'brain'
I32852
tp2230
sI1
(dp2231
I0
(S'drain'
I8123
tp2232
ssI5
(dp2233
I0
(S'genre'
I5919
tp2234
sssI4
(dp2235
I0
(S'limit'
I28901
tp2236
sI3
(dp2237
I0
(S'merit'
I5670
tp2238
ssI5
(dp2239
I0
(S'blend'
I7238
tp2240
sI2
(dp2241
I0
(S'bless'
I6293
tp2242
ssssI5
(dp2243
I0
(S'spend'
I114569
tp2244
sI2
(dp2245
I0
(S'scene'
I51248
tp2246
sI3
(dp2247
I0
(S'spell'
I5887
tp2248
sssI3
(dp2249
I0
(S'smell'
I15214
tp2250
sI3
(dp2251
I0
(S'yield'
I12634
tp2252
ssI4
(dp2253
I0
(S'split'
I10593
tp2254
sssI5
(dp2255
I0
(S'visit'
I42941
tp2256
sI3
(dp2257
I0
(S'habit'
I14501
tp2258
ssssssI5
(dp2259
I0
(S'begin'
I218617
tp2260
sI3
(dp2261
I0
(S'media'
I51798
tp2262
sI4
(dp2263
I0
(S'basis'
I30377
tp2264
sI3
(dp2265
I0
(S'cabin'
I9955
tp2266
ssI4
(dp2267
I0
(S'plain'
I8015
tp2268
ssssI4
(dp2269
I0
(S'movie'
I69387
tp2270
sI3
(dp2271
I0
(S'civil'
I37742
tp2272
sI4
(dp2273
I0
(S'solid'
I17675
tp2274
sssI4
(dp2275
I0
(S'claim'
I44259
tp2276
sI3
(dp2277
I0
(S'fluid'
I7464
tp2278
ssI4
(dp2279
I0
(S'radio'
I43156
tp2280
sI2
(dp2281
I0
(S'rapid'
I10427
tp2282
ssI3
(dp2283
I0
(S'valid'
I5509
tp2284
ssI4
(dp2285
I0
(S'strip'
I11543
tp2286
sI3
(dp2287
I0
(S'equip'
I6436
tp2288
sssssI5
(dp2289
I0
(S'hello'
I16600
tp2290
sssI5
(dp2291
I0
(S'hurry'
I8723
tp2292
ssssssI5
(dp2293
I0
(S'would'
I925515
tp2294
sI1
(dp2295
I0
(S'could'
I617932
tp2296
sI2
(dp2297
I0
(S'world'
I303506
tp2298
sI2
(dp2299
I0
(S'wound'
I9404
tp2300
ssssI2
(dp2301
I0
(S'sound'
I56828
tp2302
sI1
(dp2303
I0
(S'pound'
I29946
tp2304
sI1
(dp2305
I0
(S'round'
I14539
tp2306
sI1
(dp2307
I0
(S'found'
I12376
tp2308
sssssI3
(dp2309
I0
(S'woman'
I341422
tp2310
sI3
(dp2311
I0
(S'worry'
I40210
tp2312
sI2
(dp2313
I0
(S'worth'
I27687
tp2314
sI2
(dp2315
I0
(S'works'
I22722
tp2316
ssssI4
(dp2317
I0
(S'young'
I160011
tp2318
sI2
(dp2319
I0
(S'count'
I28836
tp2320
sI1
(dp2321
I0
(S'mount'
I10303
tp2322
ssI3
(dp2323
I0
(S'youth'
I27755
tp2324
sI2
(dp2325
I0
(S'yours'
I10004
tp2326
ssssI3
(dp2327
I0
(S'house'
I149251
tp2328
sI1
(dp2329
I0
(S'mouse'
I9449
tp2330
ssI2
(dp2331
I0
(S'route'
I18313
tp2332
ssI3
(dp2333
I0
(S'court'
I74112
tp2334
sI2
(dp2335
I0
(S'doubt'
I18542
tp2336
sI3
(dp2337
I0
(S'couch'
I9209
tp2338
sssI3
(dp2339
I0
(S'south'
I60630
tp2340
sI1
(dp2341
I0
(S'mouth'
I40200
tp2342
ssI2
(dp2343
I0
(S'rough'
I12365
tp2344
sI1
(dp2345
I0
(S'dough'
I6294
tp2346
ssssssI4
(dp2347
I0
(S'board'
I58436
tp2348
sI4
(dp2349
I0
(S'squad'
I5520
tp2350
sssI5
(dp2351
I0
(S'sword'
I7029
tp2352
sssI5
(dp2353
I0
(S'build'
I96651
tp2354
sI4
(dp2355
I0
(S'adult'
I40705
tp2356
sI2
(dp2357
I0
(S'fault'
I11116
tp2358
ssI3
(dp2359
I0
(S'skull'
I6313
tp2360
ssI5
(dp2361
I0
(S'cloud'
I19214
tp2362
sI2
(dp2363
I0
(S'proud'
I17841
tp2364
ssssI5
(dp2365
I0
(S'awful'
I9300
tp2366
ssssI4
(dp2367
I0
(S'about'
I874406
tp2368
sI3
(dp2369
I0
(S'group'
I229435
tp2370
sI4
(dp2371
I0
(S'boost'
I7863
tp2372
sI2
(dp2373
I0
(S'booth'
I6191
tp2374
ssI3
(dp2375
I0
(S'bonus'
I6531
tp2376
sI4
(dp2377
I0
(S'robot'
I6023
tp2378
ssssI5
(dp2379
I0
(S'abuse'
I24534
tp2380
sI4
(dp2381
I0
(S'boast'
I5731
tp2382
ssssI4
(dp2383
I0
(S'point'
I177481
tp2384
sI1
(dp2385
I0
(S'joint'
I15444
tp2386
ssI3
(dp2387
I0
(S'month'
I162685
tp2388
sI4
(dp2389
I0
(S'coast'
I13515
tp2390
ssI5
(dp2391
I0
(S'wrist'
I8250
tp2392
sI1
(dp2393
I0
(S'waist'
I6394
tp2394
ssI3
(dp2395
I0
(S'guilt'
I7746
tp2396
ssssI4
(dp2397
I0
(S'north'
I68046
tp2398
sI1
(dp2399
I0
(S'forth'
I19531
tp2400
ssI2
(dp2401
I0
(S'forty'
I7692
tp2402
ssI3
(dp2403
I0
(S'forum'
I5419
tp2404
ssI4
(dp2405
I0
(S'focus'
I57177
tp2406
sI4
(dp2407
I0
(S'loose'
I11299
tp2408
ssI5
(dp2409
I0
(S'ought'
I21552
tp2410
sssI5
(dp2411
I0
(S'wrong'
I58988
tp2412
sssI5
(dp2413
I0
(S'blood'
I56351
tp2414
sI1
(dp2415
I0
(S'flood'
I7986
tp2416
ssI2
(dp2417
I0
(S'broad'
I27191
tp2418
ssI3
(dp2419
I0
(S'crowd'
I30542
tp2420
ssI4
(dp2421
I0
(S'award'
I12874
tp2422
sI3
(dp2423
I0
(S'armed'
I12966
tp2424
sI2
(dp2425
I0
(S'added'
I5616
tp2426
ssI3
(dp2427
I0
(S'fraud'
I8176
tp2428
sssI4
(dp2429
I0
(S'wagon'
I6577
tp2430
ssI5
(dp2431
I0
(S'brush'
I9806
tp2432
sssI5
(dp2433
I0
(S'apply'
I42391
tp2434
sI1
(dp2435
I0
(S'apple'
I12172
tp2436
ssI3
(dp2437
I0
(S'angle'
I10456
tp2438
sI1
(dp2439
I0
(S'ankle'
I7397
tp2440
ssI2
(dp2441
I0
(S'aisle'
I5828
tp2442
sssI4
(dp2443
I0
(S'cable'
I18277
tp2444
sssssI5
(dp2445
I0
(S'still'
I296953
tp2446
sI1
(dp2447
I0
(S'skill'
I50431
tp2448
sI1
(dp2449
I0
(S'spill'
I7798
tp2450
sssI2
(dp2451
I0
(S'small'
I185463
tp2452
sI2
(dp2453
I0
(S'smile'
I41473
tp2454
ssI3
(dp2455
I0
(S'style'
I40889
tp2456
sI3
(dp2457
I0
(S'silly'
I6857
tp2458
ssssI3
(dp2459
I0
(S'study'
I174069
tp2460
sI2
(dp2461
I0
(S'stuff'
I40180
tp2462
ssI3
(dp2463
I0
(S'stand'
I140937
tp2464
ssI4
(dp2465
I0
(S'scale'
I34375
tp2466
sI4
(dp2467
I0
(S'daily'
I25179
tp2468
ssssI4
(dp2469
I0
(S'write'
I161824
tp2470
sI3
(dp2471
I0
(S'voice'
I89379
tp2472
sI2
(dp2473
I0
(S'noise'
I18024
tp2474
ssI3
(dp2475
I0
(S'guide'
I20646
tp2476
ssI4
(dp2477
I0
(S'rifle'
I10204
tp2478
sI4
(dp2479
I0
(S'dried'
I6109
tp2480
ssssI4
(dp2481
I0
(S'hotel'
I39642
tp2482
sI4
(dp2483
I0
(S'solve'
I19501
tp2484
ssI5
(dp2485
I0
(S'cycle'
I15775
tp2486
sI2
(dp2487
I0
(S'uncle'
I9355
tp2488
ssI3
(dp2489
I0
(S'Bible'
I11539
tp2490
ssI4
(dp2491
I0
(S'sauce'
I15903
tp2492
ssI5
(dp2493
I0
(S'blind'
I12005
tp2494
ssssI5
(dp2495
I0
(S'early'
I108171
tp2496
sI2
(dp2497
I0
(S'badly'
I9652
tp2498
sI2
(dp2499
I0
(S'rally'
I5619
tp2500
sssI3
(dp2501
I0
(S'sorry'
I34270
tp2502
sI4
(dp2503
I0
(S'fully'
I24842
tp2504
sI2
(dp2505
I0
(S'belly'
I7784
tp2506
ssI3
(dp2507
I0
(S'reply'
I16312
tp2508
sI2
(dp2509
I0
(S'newly'
I11388
tp2510
sI3
(dp2511
I0
(S'imply'
I12061
tp2512
sssssI5
(dp2513
I0
(S'realm'
I7261
tp2514
sssI4
(dp2515
I0
(S'moral'
I26980
tp2516
sI3
(dp2517
I0
(S'equal'
I19952
tp2518
ssI4
(dp2519
I0
(S'salad'
I12103
tp2520
sssI5
(dp2521
I0
(S'local'
I92970
tp2522
sI1
(dp2523
I0
(S'vocal'
I5727
tp2524
ssI2
(dp2525
I0
(S'royal'
I6028
tp2526
ssI3
(dp2527
I0
(S'model'
I82973
tp2528
sI2
(dp2529
I0
(S'novel'
I22392
tp2530
ssI4
(dp2531
I0
(S'usual'
I14305
tp2532
ssssssI5
(dp2533
I0
(S'money'
I164794
tp2534
sI1
(dp2535
I0
(S'honey'
I11009
tp2536
ssI3
(dp2537
I0
(S'dozen'
I32432
tp2538
sI4
(dp2539
I0
(S'lobby'
I7556
tp2540
sI5
(dp2541
I0
(S'mixed'
I6327
tp2542
ssssI4
(dp2543
I0
(S'force'
I108005
tp2544
sI2
(dp2545
I0
(S'horse'
I30993
tp2546
sI3
(dp2547
I0
(S'porch'
I10894
tp2548
sssI3
(dp2549
I0
(S'coach'
I40716
tp2550
ssI4
(dp2551
I0
(S'Roman'
I8299
tp2552
sI5
(dp2553
I0
(S'fixed'
I6042
tp2554
sssI5
(dp2555
I0
(S'naked'
I9897
tp2556
sI5
(dp2557
I0
(S'buddy'
I6554
tp2558
ssssI5
(dp2559
I0
(S'watch'
I124976
tp2560
sI3
(dp2561
I0
(S'laugh'
I48567
tp2562
sI4
(dp2563
I0
(S'waste'
I19069
tp2564
sssI4
(dp2565
I0
(S'cause'
I64531
tp2566
sI1
(dp2567
I0
(S'pause'
I12583
tp2568
ssI2
(dp2569
I0
(S'crush'
I5985
tp2570
ssI5
(dp2571
I0
(S'widow'
I5309
tp2572
sssI5
(dp2573
I0
(S'guard'
I30159
tp2574
sI2
(dp2575
I0
(S'grand'
I15659
tp2576
ssI3
(dp2577
I0
(S'brand'
I13103
tp2578
ssI4
(dp2579
I0
(S'pulse'
I5992
tp2580
ssI5
(dp2581
I0
(S'drunk'
I7890
tp2582
sssssssI5
(dp2583
I0
(S'first'
I463566
tp2584
sI2
(dp2585
I0
(S'fight'
I56886
tp2586
sI3
(dp2587
I0
(S'midst'
I5760
tp2588
ssI4
(dp2589
I0
(S'burst'
I8393
tp2590
sssI3
(dp2591
I0
(S'might'
I209059
tp2592
sI1
(dp2593
I0
(S'right'
I205250
tp2594
sI1
(dp2595
I0
(S'night'
I184511
tp2596
sI1
(dp2597
I0
(S'light'
I87427
tp2598
sI1
(dp2599
I0
(S'eight'
I50871
tp2600
sI1
(dp2601
I0
(S'sight'
I22878
tp2602
ssssssI3
(dp2603
I0
(S'pilot'
I20192
tp2604
sI3
(dp2605
I0
(S'giant'
I12963
tp2606
sssI4
(dp2607
I0
(S'least'
I123961
tp2608
sI1
(dp2609
I0
(S'beast'
I6052
tp2610
ssI3
(dp2611
I0
(S'exist'
I39341
tp2612
sI4
(dp2613
I0
(S'float'
I9982
tp2614
sssI4
(dp2615
I0
(S'front'
I37363
tp2616
sI2
(dp2617
I0
(S'faint'
I6886
tp2618
sssI5
(dp2619
I0
(S'final'
I43589
tp2620
sI3
(dp2621
I0
(S'fifth'
I13150
tp2622
sI1
(dp2623
I0
(S'fifty'
I10524
tp2624
sssI4
(dp2625
I0
(S'birth'
I24515
tp2626
sI2
(dp2627
I0
(S'dirty'
I11112
tp2628
ssI3
(dp2629
I0
(S'virus'
I12106
tp2630
sssssI5
(dp2631
I0
(S'nurse'
I19385
tp2632
sI1
(dp2633
I0
(S'purse'
I6161
tp2634
ssI3
(dp2635
I0
(S'false'
I12871
tp2636
sI3
(dp2637
I0
(S'harsh'
I8092
tp2638
sssI4
(dp2639
I0
(S'flash'
I8815
tp2640
ssssI4
(dp2641
I0
(S'start'
I213952
tp2642
sI1
(dp2643
I0
(S'smart'
I19370
tp2644
ssI2
(dp2645
I0
(S'sport'
I59006
tp2646
sI2
(dp2647
I0
(S'apart'
I17872
tp2648
sssI3
(dp2649
I0
(S'party'
I112962
tp2650
sI2
(dp2651
I0
(S'earth'
I21350
tp2652
ssI3
(dp2653
I0
(S'plant'
I63476
tp2654
sI4
(dp2655
I0
(S'diary'
I5945
tp2656
sssI4
(dp2657
I0
(S'grant'
I18598
tp2658
sI2
(dp2659
I0
(S'draft'
I12684
tp2660
sI1
(dp2661
I0
(S'craft'
I11559
tp2662
sssI3
(dp2663
I0
(S'react'
I11874
tp2664
sI2
(dp2665
I0
(S'exact'
I8643
tp2666
sI1
(dp2667
I0
(S'enact'
I5441
tp2668
sssI3
(dp2669
I0
(S'adapt'
I10987
tp2670
sssI4
(dp2671
I0
(S'straw'
I5297
tp2672
ssssI4
(dp2673
I0
(S'large'
I175611
tp2674
sI2
(dp2675
I0
(S'carve'
I7294
tp2676
ssI3
(dp2677
I0
(S'serve'
I99660
tp2678
sI4
(dp2679
I0
(S'carry'
I79513
tp2680
sI1
(dp2681
I0
(S'marry'
I28722
tp2682
ssI3
(dp2683
I0
(S'march'
I8267
tp2684
ssI5
(dp2685
I0
(S'flame'
I9716
tp2686
ssssI4
(dp2687
I0
(S'since'
I141264
tp2688
sI2
(dp2689
I0
(S'sense'
I95896
tp2690
ssI4
(dp2691
I0
(S'paint'
I24038
tp2692
sI5
(dp2693
I0
(S'frame'
I20016
tp2694
sI3
(dp2695
I0
(S'cease'
I5679
tp2696
ssI4
(dp2697
I0
(S'spray'
I6005
tp2698
ssssI5
(dp2699
I0
(S'class'
I91323
tp2700
sI1
(dp2701
I0
(S'glass'
I49686
tp2702
ssI4
(dp2703
I0
(S'asset'
I16977
tp2704
sI4
(dp2705
I0
(S'nasty'
I5682
tp2706
sI2
(dp2707
I0
(S'pasta'
I6062
tp2708
ssssI5
(dp2709
I0
(S'faith'
I28710
tp2710
ssssI5
(dp2711
I0
(S'quiet'
I26732
tp2712
sI3
(dp2713
I0
(S'print'
I15634
tp2714
sI2
(dp2715
I0
(S'drift'
I8311
tp2716
ssI4
(dp2717
I0
(S'upset'
I8570
tp2718
sssI4
(dp2719
I0
(S'adopt'
I22880
tp2720
sI4
(dp2721
I0
(S'input'
I7004
tp2722
sI3
(dp2723
I0
(S'debut'
I5986
tp2724
sssI5
(dp2725
I0
(S'sixth'
I8170
tp2726
sssI5
(dp2727
I0
(S'grass'
I18139
tp2728
sI1
(dp2729
I0
(S'grasp'
I6357
tp2730
ssI2
(dp2731
I0
(S'crash'
I11250
tp2732
ssI4
(dp2733
I0
(S'piano'
I8968
tp2734
ssI5
(dp2735
I0
(S'vital'
I10866
tp2736
sssssI5
(dp2737
I0
(S'issue'
I156417
tp2738
sI4
(dp2739
I0
(S'raise'
I87036
tp2740
sI2
(dp2741
I0
(S'arise'
I13351
tp2742
ssI3
(dp2743
I0
(S'close'
I60884
tp2744
sI5
(dp2745
I0
(S'risky'
I5632
tp2746
sssI4
(dp2747
I0
(S'agree'
I76753
tp2748
sI3
(dp2749
I0
(S'nerve'
I9933
tp2750
sI2
(dp2751
I0
(S'curve'
I8397
tp2752
sssI4
(dp2753
I0
(S'fence'
I12390
tp2754
sssI5
(dp2755
I0
(S'irony'
I5818
tp2756
sssI5
(dp2757
I0
(S'video'
I35230
tp2758
sI3
(dp2759
I0
(S'given'
I10622
tp2760
ssI4
(dp2761
I0
(S'pitch'
I9586
tp2762
sI3
(dp2763
I0
(S'pizza'
I7130
tp2764
ssI4
(dp2765
I0
(S'rival'
I6005
tp2766
sssI5
(dp2767
I0
(S'cross'
I27524
tp2768
sI1
(dp2769
I0
(S'gross'
I5802
tp2770
ssI3
(dp2771
I0
(S'Irish'
I10833
tp2772
ssI4
(dp2773
I0
(S'array'
I8167
tp2774
ssI5
(dp2775
I0
(S'funny'
I20399
tp2776
sI4
(dp2777
I0
(S'rural'
I18665
tp2778
sssssssI5
(dp2779
I0
(S'state'
I272193
tp2780
sI1
(dp2781
I0
(S'stage'
I46346
tp2782
sI1
(dp2783
I0
(S'stare'
I39266
tp2784
sI1
(dp2785
I0
(S'stake'
I12603
tp2786
ssssI2
(dp2787
I0
(S'space'
I75395
tp2788
sI1
(dp2789
I0
(S'spare'
I5492
tp2790
ssI2
(dp2791
I0
(S'slave'
I11863
tp2792
sI2
(dp2793
I0
(S'snake'
I8523
tp2794
sI2
(dp2795
I0
(S'scare'
I7367
tp2796
sssI3
(dp2797
I0
(S'spite'
I6339
tp2798
sI4
(dp2799
I0
(S'stack'
I5858
tp2800
ssssI3
(dp2801
I0
(S'store'
I56147
tp2802
sI1
(dp2803
I0
(S'stone'
I32531
tp2804
sI1
(dp2805
I0
(S'stove'
I6082
tp2806
sssI3
(dp2807
I0
(S'staff'
I50177
tp2808
sI4
(dp2809
I0
(S'suite'
I5321
tp2810
sssI4
(dp2811
I0
(S'plate'
I24592
tp2812
ssssI3
(dp2813
I0
(S'leave'
I240482
tp2814
sI2
(dp2815
I0
(S'peace'
I42273
tp2816
sI3
(dp2817
I0
(S'grave'
I8868
tp2818
sssI3
(dp2819
I0
(S'place'
I202427
tp2820
sI1
(dp2821
I0
(S'plane'
I33900
tp2822
ssI2
(dp2823
I0
(S'blame'
I19798
tp2824
sI1
(dp2825
I0
(S'blade'
I10394
tp2826
ssI3
(dp2827
I0
(S'grace'
I7634
tp2828
sssI3
(dp2829
I0
(S'image'
I72216
tp2830
sI3
(dp2831
I0
(S'grade'
I27178
tp2832
sI2
(dp2833
I0
(S'brake'
I5522
tp2834
ssI3
(dp2835
I0
(S'aware'
I25503
tp2836
sI1
(dp2837
I0
(S'awake'
I5806
tp2838
sssssI4
(dp2839
I0
(S'death'
I93222
tp2840
sssI4
(dp2841
I0
(S'quite'
I69966
tp2842
sI1
(dp2843
I0
(S'quote'
I15415
tp2844
ssI2
(dp2845
I0
(S'elite'
I12329
tp2846
sI2
(dp2847
I0
(S'unite'
I6391
tp2848
sssI3
(dp2849
I0
(S'slide'
I16805
tp2850
sI1
(dp2851
I0
(S'slice'
I9337
tp2852
sssI4
(dp2853
I0
(S'score'
I39294
tp2854
sI1
(dp2855
I0
(S'scope'
I10115
tp2856
ssI2
(dp2857
I0
(S'smoke'
I14327
tp2858
sI2
(dp2859
I0
(S'slope'
I8573
tp2860
ssssI5
(dp2861
I0
(S'sales'
I32145
tp2862
sI4
(dp2863
I0
(S'scary'
I6865
tp2864
ssssI5
(dp2865
I0
(S'story'
I163582
tp2866
sI1
(dp2867
I0
(S'storm'
I22562
tp2868
ssI2
(dp2869
I0
(S'stock'
I54305
tp2870
ssI3
(dp2871
I0
(S'stick'
I32259
tp2872
sI2
(dp2873
I0
(S'stiff'
I6697
tp2874
sssssI4
(dp2875
I0
(S'black'
I150718
tp2876
sI1
(dp2877
I0
(S'blank'
I5585
tp2878
ssI2
(dp2879
I0
(S'beach'
I18451
tp2880
sI3
(dp2881
I0
(S'crack'
I10330
tp2882
sssI3
(dp2883
I0
(S'reach'
I92375
tp2884
sI4
(dp2885
I0
(S'alarm'
I7631
tp2886
sssI4
(dp2887
I0
(S'price'
I84443
tp2888
sI2
(dp2889
I0
(S'juice'
I15388
tp2890
ssI3
(dp2891
I0
(S'alive'
I24184
tp2892
sI1
(dp2893
I0
(S'alike'
I5740
tp2894
ssI4
(dp2895
I0
(S'dance'
I21799
tp2896
ssI5
(dp2897
I0
(S'patch'
I9155
tp2898
sssI4
(dp2899
I0
(S'catch'
I68214
tp2900
sI1
(dp2901
I0
(S'match'
I17788
tp2902
ssI4
(dp2903
I0
(S'crazy'
I20345
tp2904
sI2
(dp2905
I0
(S'crawl'
I7596
tp2906
sssI5
(dp2907
I0
(S'alone'
I34982
tp2908
sI2
(dp2909
I0
(S'glove'
I10218
tp2910
sI1
(dp2911
I0
(S'globe'
I5166
tp2912
sssI5
(dp2913
I0
(S'Iraqi'
I25446
tp2914
sI3
(dp2915
I0
(S'drama'
I12393
tp2916
sssssI5
(dp2917
I0
(S'ready'
I50833
tp2918
sI3
(dp2919
I0
(S'jeans'
I8851
tp2920
ssI5
(dp2921
I0
(S'label'
I12497
tp2922
sI5
(dp2923
I0
(S'Islam'
I8755
tp2924
sI5
(dp2925
I0
(S'cloth'
I8287
tp2926
ssssssI5
(dp2927
I0
(S'often'
I140731
tp2928
sI3
(dp2929
I0
(S'seven'
I52011
tp2930
ssI4
(dp2931
I0
(S'metal'
I23317
tp2932
sI4
(dp2933
I0
(S'panel'
I22529
tp2934
sI5
(dp2935
I0
(S'Asian'
I14873
tp2936
sssI5
(dp2937
I0
(S'spoon'
I6194
tp2938
sssI5
(dp2939
I0
(S'maybe'
I108421
tp2940
sI3
(dp2941
I0
(S'value'
I82942
tp2942
sI3
(dp2943
I0
(S'range'
I41326
tp2944
sssI4
(dp2945
I0
(S'drive'
I80476
tp2946
sI2
(dp2947
I0
(S'crime'
I48010
tp2948
sI1
(dp2949
I0
(S'prime'
I22075
tp2950
ssI2
(dp2951
I0
(S'pride'
I11107
tp2952
sI1
(dp2953
I0
(S'prize'
I7519
tp2954
sssI3
(dp2955
I0
(S'prove'
I44304
tp2956
sssI3
(dp2957
I0
(S'argue'
I51013
tp2958
sI3
(dp2959
I0
(S'above'
I44130
tp2960
sI3
(dp2961
I0
(S'aside'
I19056
tp2962
sssI4
(dp2963
I0
(S'knife'
I15792
tp2964
sssI4
(dp2965
I0
(S'judge'
I35464
tp2966
sssI5
(dp2967
I0
(S'empty'
I23365
tp2968
sI3
(dp2969
I0
(S'essay'
I13802
tp2970
sI4
(dp2971
I0
(S'unity'
I7810
tp2972
ssI5
(dp2973
I0
(S'depth'
I12927
tp2974
sssI5
(dp2975
I0
(S'swing'
I14317
tp2976
ssssssI5
(dp2977
I0
(S'bring'
I174366
tp2978
sI2
(dp2979
I0
(S'drink'
I32078
tp2980
sI2
(dp2981
I0
(S'brick'
I9069
tp2982
sI2
(dp2983
I0
(S'blink'
I6160
tp2984
ssI4
(dp2985
I0
(S'dying'
I5504
tp2986
sssI3
(dp2987
I0
(S'brief'
I15770
tp2988
sI4
(dp2989
I0
(S'cling'
I5678
tp2990
ssssI3
(dp2991
I0
(S'among'
I138192
tp2992
sI1
(dp2993
I0
(S'along'
I84926
tp2994
ssI4
(dp2995
I0
(S'brown'
I21175
tp2996
ssI5
(dp2997
I0
(S'grief'
I6591
tp2998
sssI4
(dp2999
I0
(S'quick'
I29108
tp3000
sI2
(dp3001
I0
(S'click'
I7549
tp3002
ssI3
(dp3003
I0
(S'block'
I28826
tp3004
sI3
(dp3005
I0
(S'bunch'
I12225
tp3006
sssI4
(dp3007
I0
(S'climb'
I24367
tp3008
sI2
(dp3009
I0
(S'cliff'
I6117
tp3010
ssI3
(dp3011
I0
(S'alien'
I7134
tp3012
ssI4
(dp3013
I0
(S'union'
I22380
tp3014
sI1
(dp3015
I0
(S'onion'
I13769
tp3016
sssI5
(dp3017
I0
(S'bench'
I11666
tp3018
sI2
(dp3019
I0
(S'ranch'
I6759
tp3020
ssssI5
(dp3021
I0
(S'below'
I26765
tp3022
sI4
(dp3023
I0
(S'proof'
I10775
tp3024
ssI5
(dp3025
I0
(S'urban'
I23889
tp3026
sI2
(dp3027
I0
(S'organ'
I8596
tp3028
sssssI5
(dp3029
I0
(S'level'
I121704
tp3030
sI2
(dp3031
I0
(S'legal'
I44820
tp3032
sI3
(dp3033
I0
(S'rebel'
I7525
tp3034
sssI3
(dp3035
I0
(S'lemon'
I10095
tp3036
sI4
(dp3037
I0
(S'medal'
I8991
tp3038
ssI5
(dp3039
I0
(S'angel'
I6978
tp3040
sssI4
(dp3041
I0
(S'lunch'
I23220
tp3042
sI3
(dp3043
I0
(S'lucky'
I16550
tp3044
ssI5
(dp3045
I0
(S'index'
I12751
tp3046
sI4
(dp3047
I0
(S'relax'
I11202
tp3048
sI4
(dp3049
I0
(S'alley'
I6236
tp3050
sssI5
(dp3051
I0
(S'delay'
I9868
tp3052
ssssI5
(dp3053
I0
(S'allow'
I114892
tp3054
sI2
(dp3055
I0
(S'elbow'
I8536
tp3056
ssI3
(dp3057
I0
(S'album'
I15869
tp3058
ssI4
(dp3059
I0
(S'enjoy'
I44020
tp3060
sI3
(dp3061
I0
(S'angry'
I21485
tp3062
ssI4
(dp3063
I0
(S'glory'
I6443
tp3064
sI4
(dp3065
I0
(S'known'
I5892
tp3066
sssI5
(dp3067
I0
(S'clock'
I12395
tp3068
sssI5
(dp3069
I0
(S'human'
I101224
tp3070
sI2
(dp3071
I0
(S'Cuban'
I6601
tp3072
ssI4
(dp3073
I0
(S'happy'
I51669
tp3074
sI5
(dp3075
I0
(S'Dutch'
I6690
tp3076
sI2
(dp3077
I0
(S'punch'
I6071
tp3078
ssssI5
(dp3079
I0
(S'extra'
I24006
tp3080
sI2
(dp3081
I0
(S'entry'
I14643
tp3082
ssI5
(dp3083
I0
(S'knock'
I17146
tp3084
sI5
(dp3085
I0
(S'candy'
I8633
tp3086
ssssssssssssI6
(dp3087
I0
(S'people'
I691468
tp3088
sI2
(dp3089
I0
(S'temple'
I7949
tp3090
sI3
(dp3091
I0
(S'purple'
I7216
tp3092
sssI3
(dp3093
I0
(S'couple'
I74871
tp3094
sI3
(dp3095
I0
(S'simple'
I50583
tp3096
sI1
(dp3097
I0
(S'sample'
I32436
tp3098
sssI4
(dp3099
I0
(S'settle'
I28827
tp3100
sI2
(dp3101
I0
(S'gentle'
I8766
tp3102
ssI3
(dp3103
I0
(S'female'
I27952
tp3104
ssI4
(dp3105
I0
(S'deeply'
I15848
tp3106
sI5
(dp3107
I0
(S'puzzle'
I6153
tp3108
ssssI5
(dp3109
I0
(S'pepper'
I20220
tp3110
sI2
(dp3111
I0
(S'proper'
I17024
tp3112
ssssI4
(dp3113
I0
(S'should'
I310265
tp3114
sI3
(dp3115
I0
(S'slowly'
I33403
tp3116
sI4
(dp3117
I0
(S'spouse'
I7510
tp3118
sssI4
(dp3119
I0
(S'result'
I116277
tp3120
sI4
(dp3121
I0
(S'secure'
I13181
tp3122
ssI5
(dp3123
I0
(S'simply'
I66712
tp3124
sI2
(dp3125
I0
(S'supply'
I24920
tp3126
ssI3
(dp3127
I0
(S'single'
I60072
tp3128
ssI4
(dp3129
I0
(S'stable'
I10964
tp3130
sI3
(dp3131
I0
(S'subtle'
I8442
tp3132
sssI5
(dp3133
I0
(S'double'
I15233
tp3134
sssI6
(dp3135
I0
(S'choose'
I64348
tp3136
sI2
(dp3137
I0
(S'choice'
I60487
tp3138
ssssI5
(dp3139
I0
(S'really'
I263414
tp3140
sI2
(dp3141
I0
(S'nearly'
I64860
tp3142
sI2
(dp3143
I0
(S'deadly'
I8196
tp3144
ssI4
(dp3145
I0
(S'recall'
I34442
tp3146
sssI3
(dp3147
I0
(S'merely'
I18094
tp3148
sI3
(dp3149
I0
(S'gently'
I12233
tp3150
sI3
(dp3151
I0
(S'weekly'
I9297
tp3152
ssssI4
(dp3153
I0
(S'reduce'
I57029
tp3154
sI2
(dp3155
I0
(S'refuse'
I30173
tp3156
sI1
(dp3157
I0
(S'refuge'
I5505
tp3158
ssI2
(dp3159
I0
(S'resume'
I7243
tp3160
sssI5
(dp3161
I0
(S'unable'
I15901
tp3162
sI1
(dp3163
I0
(S'enable'
I16293
tp3164
ssI5
(dp3165
I0
(S'behalf'
I5727
tp3166
sssI6
(dp3167
I0
(S'partly'
I11132
tp3168
sI4
(dp3169
I0
(S'openly'
I5558
tp3170
sI4
(dp3171
I0
(S'comply'
I5452
tp3172
sssssI5
(dp3173
I0
(S'little'
I149658
tp3174
sI2
(dp3175
I0
(S'battle'
I31989
tp3176
sI1
(dp3177
I0
(S'bottle'
I21569
tp3178
sI2
(dp3179
I0
(S'cattle'
I7827
tp3180
ssssI3
(dp3181
I0
(S'middle'
I40402
tp3182
sI3
(dp3183
I0
(S'circle'
I24735
tp3184
sssI4
(dp3185
I0
(S'handle'
I30634
tp3186
sI1
(dp3187
I0
(S'candle'
I7204
tp3188
ssI3
(dp3189
I0
(S'tackle'
I6644
tp3190
sI4
(dp3191
I0
(S'jungle'
I5693
tp3192
sssI4
(dp3193
I0
(S'muscle'
I21931
tp3194
sI3
(dp3195
I0
(S'bubble'
I6570
tp3196
sI3
(dp3197
I0
(S'mobile'
I5339
tp3198
sssssI5
(dp3199
I0
(S'severe'
I14609
tp3200
sI4
(dp3201
I0
(S'evolve'
I11442
tp3202
ssI6
(dp3203
I0
(S'toilet'
I6939
tp3204
sssI6
(dp3205
I0
(S'period'
I64534
tp3206
sssI6
(dp3207
I0
(S'profit'
I21754
tp3208
sI2
(dp3209
I0
(S'prompt'
I9741
tp3210
ssI4
(dp3211
I0
(S'cookie'
I9480
tp3212
ssI5
(dp3213
I0
(S'phrase'
I12558
tp3214
ssssI6
(dp3215
I0
(S'become'
I259102
tp3216
sI2
(dp3217
I0
(S'before'
I172769
tp3218
ssI3
(dp3219
I0
(S'decide'
I84035
tp3220
sI1
(dp3221
I0
(S'decade'
I53727
tp3222
ssI2
(dp3223
I0
(S'beside'
I19952
tp3224
sI3
(dp3225
I0
(S'recipe'
I13840
tp3226
sssI3
(dp3227
I0
(S'regime'
I21101
tp3228
sI4
(dp3229
I0
(S'devote'
I9326
tp3230
sssI4
(dp3231
I0
(S'remove'
I44683
tp3232
sI1
(dp3233
I0
(S'remote'
I11346
tp3234
ssI3
(dp3235
I0
(S'behave'
I7546
tp3236
ssssI4
(dp3237
I0
(S'degree'
I50612
tp3238
sI3
(dp3239
I0
(S'debate'
I37228
tp3240
sI3
(dp3241
I0
(S'define'
I33958
tp3242
sI2
(dp3243
I0
(S'device'
I24918
tp3244
sI2
(dp3245
I0
(S'desire'
I23994
tp3246
sI2
(dp3247
I0
(S'derive'
I10913
tp3248
ssssssI4
(dp3249
I0
(S'relate'
I39143
tp3250
sI2
(dp3251
I0
(S'Senate'
I36809
tp3252
ssI3
(dp3253
I0
(S'retire'
I14979
tp3254
sI3
(dp3255
I0
(S'rescue'
I7187
tp3256
sssI4
(dp3257
I0
(S'league'
I19766
tp3258
sssI5
(dp3259
I0
(S'oppose'
I18484
tp3260
sI2
(dp3261
I0
(S'expose'
I17581
tp3262
ssssI5
(dp3263
I0
(S'person'
I113650
tp3264
sI3
(dp3265
I0
(S'weapon'
I43158
tp3266
sI5
(dp3267
I0
(S'permit'
I16764
tp3268
ssI6
(dp3269
I0
(S'pursue'
I20136
tp3270
sssI4
(dp3271
I0
(S'please'
I34709
tp3272
sI3
(dp3273
I0
(S'parade'
I7010
tp3274
ssI4
(dp3275
I0
(S'peanut'
I5604
tp3276
ssI5
(dp3277
I0
(S'pencil'
I5936
tp3278
ssI6
(dp3279
I0
(S'deploy'
I5674
tp3280
sssI5
(dp3281
I0
(S'police'
I85880
tp3282
sI2
(dp3283
I0
(S'palace'
I5347
tp3284
ssI3
(dp3285
I0
(S'praise'
I7379
tp3286
ssI4
(dp3287
I0
(S'pocket'
I23580
tp3288
sI5
(dp3289
I0
(S'plunge'
I5490
tp3290
sssI6
(dp3291
I0
(S'dealer'
I12999
tp3292
sssI6
(dp3293
I0
(S'empire'
I6268
tp3294
sssI6
(dp3295
I0
(S'employ'
I18912
tp3296
sI6
(dp3297
I0
(S'powder'
I9639
tp3298
sI2
(dp3299
I0
(S'poster'
I7069
tp3300
ssssssI5
(dp3301
I0
(S'school'
I304183
tp3302
sI3
(dp3303
I0
(S'scheme'
I10428
tp3304
ssI4
(dp3305
I0
(S'second'
I103621
tp3306
sI3
(dp3307
I0
(S'season'
I83743
tp3308
sI3
(dp3309
I0
(S'sector'
I19103
tp3310
sssI4
(dp3311
I0
(S'sexual'
I41865
tp3312
sI4
(dp3313
I0
(S'senior'
I36598
tp3314
ssI5
(dp3315
I0
(S'smooth'
I14148
tp3316
sI4
(dp3317
I0
(S'stroke'
I9891
tp3318
ssssI5
(dp3319
I0
(S'shower'
I9624
tp3320
sI4
(dp3321
I0
(S'sphere'
I5881
tp3322
ssI6
(dp3323
I0
(S'enroll'
I7053
tp3324
sssI6
(dp3325
I0
(S'patrol'
I6382
tp3326
sssI5
(dp3327
I0
(S'though'
I152182
tp3328
sI4
(dp3329
I0
(S'change'
I123183
tp3330
sI1
(dp3331
I0
(S'charge'
I42353
tp3332
ssI5
(dp3333
I0
(S'theory'
I45553
tp3334
sssI5
(dp3335
I0
(S'source'
I66862
tp3336
sI3
(dp3337
I0
(S'search'
I27087
tp3338
ssI4
(dp3339
I0
(S'chance'
I62682
tp3340
sI4
(dp3341
I0
(S'statue'
I7058
tp3342
ssI5
(dp3343
I0
(S'speech'
I35504
tp3344
sssI5
(dp3345
I0
(S'accuse'
I17778
tp3346
sI4
(dp3347
I0
(S'cheese'
I17416
tp3348
ssI6
(dp3349
I0
(S'terror'
I12342
tp3350
sssI6
(dp3351
I0
(S'method'
I42667
tp3352
sI5
(dp3353
I0
(S'belong'
I21856
tp3354
sI4
(dp3355
I0
(S'bloody'
I6513
tp3356
ssI5
(dp3357
I0
(S'closed'
I7500
tp3358
sssI6
(dp3359
I0
(S'global'
I36381
tp3360
sI4
(dp3361
I0
(S'closer'
I9976
tp3362
sI1
(dp3363
I0
(S'closet'
I8597
tp3364
ssssssI6
(dp3365
I0
(S'follow'
I119425
tp3366
sI1
(dp3367
I0
(S'fellow'
I13585
tp3368
ssI2
(dp3369
I0
(S'yellow'
I22452
tp3370
sI2
(dp3371
I0
(S'pillow'
I7122
tp3372
sssI3
(dp3373
I0
(S'collar'
I5791
tp3374
ssI4
(dp3375
I0
(S'solely'
I5456
tp3376
ssI5
(dp3377
I0
(S'reason'
I106863
tp3378
sI2
(dp3379
I0
(S'region'
I50914
tp3380
sI3
(dp3381
I0
(S'lesson'
I28623
tp3382
sssI3
(dp3383
I0
(S'prison'
I30248
tp3384
ssI4
(dp3385
I0
(S'pastor'
I7260
tp3386
sI3
(dp3387
I0
(S'mentor'
I5757
tp3388
sI5
(dp3389
I0
(S'patron'
I5331
tp3390
sssI4
(dp3391
I0
(S'vendor'
I5543
tp3392
sssI5
(dp3393
I0
(S'select'
I21617
tp3394
ssI6
(dp3395
I0
(S'soccer'
I9212
tp3396
sI4
(dp3397
I0
(S'softly'
I7487
tp3398
sI5
(dp3399
I0
(S'compel'
I5728
tp3400
sssI5
(dp3401
I0
(S'costly'
I6130
tp3402
ssI6
(dp3403
I0
(S'unfold'
I5420
tp3404
ssssI6
(dp3405
I0
(S'behind'
I95047
tp3406
sI2
(dp3407
I0
(S'beyond'
I50742
tp3408
ssI4
(dp3409
I0
(S'record'
I77509
tp3410
sI5
(dp3411
I0
(S'series'
I54549
tp3412
sssI5
(dp3413
I0
(S'report'
I88138
tp3414
sI1
(dp3415
I0
(S'resort'
I12379
tp3416
ssI2
(dp3417
I0
(S'reform'
I36103
tp3418
ssI3
(dp3419
I0
(S'memory'
I43531
tp3420
ssI4
(dp3421
I0
(S'reveal'
I42605
tp3422
sI3
(dp3423
I0
(S'retail'
I8600
tp3424
ssI5
(dp3425
I0
(S'secret'
I19125
tp3426
sssI5
(dp3427
I0
(S'anyone'
I58274
tp3428
sI6
(dp3429
I0
(S'detail'
I38750
tp3430
sI3
(dp3431
I0
(S'mental'
I23650
tp3432
ssI4
(dp3433
I0
(S'vessel'
I10920
tp3434
sI3
(dp3435
I0
(S'verbal'
I7227
tp3436
sssssI6
(dp3437
I0
(S'strike'
I33238
tp3438
sI4
(dp3439
I0
(S'active'
I26507
tp3440
sI6
(dp3441
I0
(S'stupid'
I12467
tp3442
sssssI6
(dp3443
I0
(S'income'
I34925
tp3444
sI3
(dp3445
I0
(S'ignore'
I27023
tp3446
sI3
(dp3447
I0
(S'impose'
I14881
tp3448
sssI4
(dp3449
I0
(S'escape'
I17195
tp3450
ssI5
(dp3451
I0
(S'square'
I11630
tp3452
sI4
(dp3453
I0
(S'stance'
I5812
tp3454
sI4
(dp3455
I0
(S'sleeve'
I5855
tp3456
sssI5
(dp3457
I0
(S'export'
I9013
tp3458
sssI6
(dp3459
I0
(S'appeal'
I19561
tp3460
sI5
(dp3461
I0
(S'useful'
I18205
tp3462
sI4
(dp3463
I0
(S'safely'
I5959
tp3464
ssI5
(dp3465
I0
(S'surely'
I13904
tp3466
ssssssssI6
(dp3467
I0
(S'family'
I243267
tp3468
sI2
(dp3469
I0
(S'easily'
I31755
tp3470
sI3
(dp3471
I0
(S'fairly'
I15701
tp3472
sssI3
(dp3473
I0
(S'hardly'
I20757
tp3474
sI2
(dp3475
I0
(S'barely'
I18533
tp3476
sI1
(dp3477
I0
(S'rarely'
I14912
tp3478
sssI3
(dp3479
I0
(S'mainly'
I11367
tp3480
sI3
(dp3481
I0
(S'lately'
I6696
tp3482
ssI4
(dp3483
I0
(S'firmly'
I7189
tp3484
ssssI4
(dp3485
I0
(S'policy'
I107601
tp3486
sI4
(dp3487
I0
(S'mostly'
I28178
tp3488
sI3
(dp3489
I0
(S'lovely'
I9327
tp3490
sI1
(dp3491
I0
(S'lonely'
I6868
tp3492
sssI5
(dp3493
I0
(S'valley'
I9708
tp3494
ssI6
(dp3495
I0
(S'parish'
I5723
tp3496
sssI5
(dp3497
I0
(S'likely'
I63002
tp3498
sI2
(dp3499
I0
(S'widely'
I16000
tp3500
ssI3
(dp3501
I0
(S'highly'
I29554
tp3502
ssI6
(dp3503
I0
(S'native'
I28026
tp3504
sI4
(dp3505
I0
(S'admire'
I9016
tp3506
ssI5
(dp3507
I0
(S'remind'
I25525
tp3508
ssssI6
(dp3509
I0
(S'damage'
I24155
tp3510
sI4
(dp3511
I0
(S'campus'
I17541
tp3512
ssssI5
(dp3513
I0
(S'happen'
I182714
tp3514
sI3
(dp3515
I0
(S'carpet'
I6658
tp3516
ssI4
(dp3517
I0
(S'parent'
I119610
tp3518
sI1
(dp3519
I0
(S'patent'
I6024
tp3520
ssI5
(dp3521
I0
(S'frozen'
I7474
tp3522
ssI6
(dp3523
I0
(S'hockey'
I6171
tp3524
sssI5
(dp3525
I0
(S'member'
I134731
tp3526
sI4
(dp3527
I0
(S'remain'
I91319
tp3528
sI4
(dp3529
I0
(S'review'
I28141
tp3530
sI2
(dp3531
I0
(S'relief'
I19493
tp3532
sssI5
(dp3533
I0
(S'belief'
I28844
tp3534
ssI6
(dp3535
I0
(S'former'
I88930
tp3536
sI2
(dp3537
I0
(S'foster'
I6237
tp3538
ssI3
(dp3539
I0
(S'flower'
I25642
tp3540
ssI4
(dp3541
I0
(S'monkey'
I5698
tp3542
ssssI5
(dp3543
I0
(S'design'
I48605
tp3544
sI1
(dp3545
I0
(S'resign'
I8867
tp3546
ssI3
(dp3547
I0
(S'depict'
I9721
tp3548
ssI4
(dp3549
I0
(S'deputy'
I12972
tp3550
ssI5
(dp3551
I0
(S'manage'
I40536
tp3552
sI6
(dp3553
I0
(S'Soviet'
I36193
tp3554
sssI6
(dp3555
I0
(S'forget'
I45571
tp3556
sI4
(dp3557
I0
(S'convey'
I7529
tp3558
ssssI6
(dp3559
I0
(S'nature'
I57929
tp3560
sI4
(dp3561
I0
(S'garage'
I9573
tp3562
ssI5
(dp3563
I0
(S'amount'
I49944
tp3564
sI6
(dp3565
I0
(S'thrive'
I5472
tp3566
sssI6
(dp3567
I0
(S'plenty'
I17445
tp3568
ssssI6
(dp3569
I0
(S'office'
I114791
tp3570
sI3
(dp3571
I0
(S'notice'
I38910
tp3572
sI3
(dp3573
I0
(S'advice'
I21970
tp3574
ssI4
(dp3575
I0
(S'online'
I15848
tp3576
sssI4
(dp3577
I0
(S'arrive'
I47435
tp3578
sI3
(dp3579
I0
(S'advise'
I12709
tp3580
sI3
(dp3581
I0
(S'cruise'
I5434
tp3582
ssI4
(dp3583
I0
(S'motive'
I8029
tp3584
sssI4
(dp3585
I0
(S'entire'
I43997
tp3586
sI2
(dp3587
I0
(S'engine'
I23617
tp3588
ssI3
(dp3589
I0
(S'inside'
I40856
tp3590
sI2
(dp3591
I0
(S'invite'
I22158
tp3592
ssI3
(dp3593
I0
(S'unlike'
I13248
tp3594
sssI4
(dp3595
I0
(S'divide'
I18337
tp3596
sI1
(dp3597
I0
(S'divine'
I7059
tp3598
ssssI5
(dp3599
I0
(S'fierce'
I5622
tp3600
sssI5
(dp3601
I0
(S'figure'
I74858
tp3602
sI2
(dp3603
I0
(S'future'
I58020
tp3604
ssI4
(dp3605
I0
(S'freeze'
I11596
tp3606
sI5
(dp3607
I0
(S'immune'
I6492
tp3608
sssI5
(dp3609
I0
(S'legacy'
I9461
tp3610
sI5
(dp3611
I0
(S'inmate'
I6718
tp3612
sssI6
(dp3613
I0
(S'Jewish'
I20196
tp3614
sI3
(dp3615
I0
(S'resist'
I13330
tp3616
sI4
(dp3617
I0
(S'punish'
I6955
tp3618
sssI4
(dp3619
I0
(S'medium'
I9523
tp3620
sI3
(dp3621
I0
(S'genius'
I6509
tp3622
sssssI6
(dp3623
I0
(S'itself'
I71093
tp3624
sI2
(dp3625
I0
(S'myself'
I59716
tp3626
ssI6
(dp3627
I0
(S'pretty'
I50385
tp3628
sI2
(dp3629
I0
(S'poetry'
I10671
tp3630
ssI4
(dp3631
I0
(S'beauty'
I21060
tp3632
ssI5
(dp3633
I0
(S'nearby'
I13820
tp3634
sI4
(dp3635
I0
(S'remark'
I8453
tp3636
sssI6
(dp3637
I0
(S'demand'
I30519
tp3638
ssssssI6
(dp3639
I0
(S'mother'
I169407
tp3640
sI1
(dp3641
I0
(S'bother'
I15870
tp3642
ssI2
(dp3643
I0
(S'either'
I69497
tp3644
ssI3
(dp3645
I0
(S'better'
I83895
tp3646
sI1
(dp3647
I0
(S'letter'
I60369
tp3648
ssI3
(dp3649
I0
(S'border'
I28636
tp3650
ssI4
(dp3651
I0
(S'worker'
I69962
tp3652
sI2
(dp3653
I0
(S'wonder'
I50875
tp3654
sI3
(dp3655
I0
(S'corner'
I35496
tp3656
sssssI4
(dp3657
I0
(S'leader'
I85438
tp3658
sI1
(dp3659
I0
(S'reader'
I31442
tp3660
ssI2
(dp3661
I0
(S'gender'
I22190
tp3662
sI1
(dp3663
I0
(S'render'
I8288
tp3664
sI1
(dp3665
I0
(S'tender'
I7013
tp3666
ssssI3
(dp3667
I0
(S'player'
I81358
tp3668
sI1
(dp3669
I0
(S'prayer'
I16296
tp3670
ssI4
(dp3671
I0
(S'center'
I74559
tp3672
sssI4
(dp3673
I0
(S'prefer'
I20946
tp3674
sI3
(dp3675
I0
(S'broker'
I6929
tp3676
ssI4
(dp3677
I0
(S'killer'
I12631
tp3678
ssI5
(dp3679
I0
(S'golden'
I19852
tp3680
sI2
(dp3681
I0
(S'wooden'
I13518
tp3682
ssssI5
(dp3683
I0
(S'coffee'
I28331
tp3684
sI4
(dp3685
I0
(S'rocket'
I6722
tp3686
ssI5
(dp3687
I0
(S'outlet'
I5497
tp3688
sssI6
(dp3689
I0
(S'potato'
I15561
tp3690
sssI5
(dp3691
I0
(S'minute'
I126660
tp3692
sI3
(dp3693
I0
(S'donate'
I6606
tp3694
ssI4
(dp3695
I0
(S'locate'
I21843
tp3696
sI3
(dp3697
I0
(S'estate'
I20673
tp3698
ssI4
(dp3699
I0
(S'volume'
I18989
tp3700
sI4
(dp3701
I0
(S'tongue'
I11674
tp3702
sssI5
(dp3703
I0
(S'virtue'
I9111
tp3704
sssI5
(dp3705
I0
(S'course'
I96224
tp3706
sI3
(dp3707
I0
(S'bounce'
I7451
tp3708
ssI4
(dp3709
I0
(S'emerge'
I29496
tp3710
ssI5
(dp3711
I0
(S'return'
I81812
tp3712
sI5
(dp3713
I0
(S'output'
I7041
tp3714
sssI6
(dp3715
I0
(S'growth'
I50904
tp3716
sI6
(dp3717
I0
(S'planet'
I23567
tp3718
ssssI6
(dp3719
I0
(S'expert'
I43898
tp3720
sI3
(dp3721
I0
(S'desert'
I15653
tp3722
sI5
(dp3723
I0
(S'exceed'
I9362
tp3724
sssI4
(dp3725
I0
(S'detect'
I11776
tp3726
sI4
(dp3727
I0
(S'helmet'
I6203
tp3728
sI3
(dp3729
I0
(S'regret'
I5479
tp3730
sssI5
(dp3731
I0
(S'exotic'
I6185
tp3732
sssI5
(dp3733
I0
(S'heaven'
I12461
tp3734
sI2
(dp3735
I0
(S'weaken'
I5640
tp3736
ssI3
(dp3737
I0
(S'eleven'
I6239
tp3738
ssI5
(dp3739
I0
(S'bullet'
I11706
tp3740
sI6
(dp3741
I0
(S'repair'
I7088
tp3742
ssssI6
(dp3743
I0
(S'broken'
I12097
tp3744
sI5
(dp3745
I0
(S'retain'
I12041
tp3746
sssssI6
(dp3747
I0
(S'around'
I143766
tp3748
sI1
(dp3749
I0
(S'ground'
I74713
tp3750
ssI4
(dp3751
I0
(S'enough'
I105880
tp3752
sI5
(dp3753
I0
(S'assume'
I35960
tp3754
sI1
(dp3755
I0
(S'assure'
I12542
tp3756
ssI6
(dp3757
I0
(S'expand'
I23417
tp3758
sssI6
(dp3759
I0
(S'depend'
I25405
tp3760
sI1
(dp3761
I0
(S'defend'
I20510
tp3762
ssI2
(dp3763
I0
(S'legend'
I8660
tp3764
ssssI5
(dp3765
I0
(S'create'
I119419
tp3766
sI3
(dp3767
I0
(S'breeze'
I6423
tp3768
ssI4
(dp3769
I0
(S'bridge'
I21497
tp3770
sI3
(dp3771
I0
(S'orange'
I9755
tp3772
ssI4
(dp3773
I0
(S'priest'
I14889
tp3774
ssI6
(dp3775
I0
(S'regard'
I16890
tp3776
sI1
(dp3777
I0
(S'reward'
I8662
tp3778
ssssI5
(dp3779
I0
(S'recent'
I70685
tp3780
sI1
(dp3781
I0
(S'decent'
I6954
tp3782
ssI5
(dp3783
I0
(S'German'
I20096
tp3784
sI6
(dp3785
I0
(S'excuse'
I8722
tp3786
sssI6
(dp3787
I0
(S'ensure'
I21341
tp3788
sI1
(dp3789
I0
(S'endure'
I7586
tp3790
ssI2
(dp3791
I0
(S'injure'
I7574
tp3792
ssssI6
(dp3793
I0
(S'versus'
I10007
tp3794
sssI6
(dp3795
I0
(S'public'
I119825
tp3796
sI4
(dp3797
I0
(S'debris'
I5491
tp3798
ssI5
(dp3799
I0
(S'health'
I117762
tp3800
sI1
(dp3801
I0
(S'wealth'
I12886
tp3802
ssI5
(dp3803
I0
(S'tennis'
I9985
tp3804
sI5
(dp3805
I0
(S'twelve'
I9638
tp3806
sssI6
(dp3807
I0
(S'pickup'
I7415
tp3808
sssI6
(dp3809
I0
(S'expect'
I95566
tp3810
sI3
(dp3811
I0
(S'repeat'
I22622
tp3812
sI2
(dp3813
I0
(S'reject'
I17656
tp3814
sssI4
(dp3815
I0
(S'defeat'
I8945
tp3816
ssI5
(dp3817
I0
(S'weight'
I41919
tp3818
sI1
(dp3819
I0
(S'height'
I17403
tp3820
ssI5
(dp3821
I0
(S'engage'
I28194
tp3822
ssI6
(dp3823
I0
(S'glance'
I16008
tp3824
sssI6
(dp3825
I0
(S'unique'
I21436
tp3826
sI4
(dp3827
I0
(S'tissue'
I12342
tp3828
sI5
(dp3829
I0
(S'invade'
I5653
tp3830
sssI6
(dp3831
I0
(S'length'
I19624
tp3832
sssssssssI6
(dp3833
I0
(S'system'
I200175
tp3834
sI2
(dp3835
I0
(S'sister'
I48183
tp3836
ssI3
(dp3837
I0
(S'listen'
I64984
tp3838
sI3
(dp3839
I0
(S'master'
I18880
tp3840
sI1
(dp3841
I0
(S'faster'
I5538
tp3842
sssI4
(dp3843
I0
(S'custom'
I10408
tp3844
sssI4
(dp3845
I0
(S'matter'
I73842
tp3846
sI1
(dp3847
I0
(S'latter'
I12527
tp3848
ssI2
(dp3849
I0
(S'butter'
I14780
tp3850
sI1
(dp3851
I0
(S'bitter'
I8353
tp3852
sssI3
(dp3853
I0
(S'writer'
I39666
tp3854
sI2
(dp3855
I0
(S'winter'
I31227
tp3856
ssI3
(dp3857
I0
(S'hunter'
I10839
tp3858
sI3
(dp3859
I0
(S'filter'
I6210
tp3860
ssssI4
(dp3861
I0
(S'summer'
I62503
tp3862
sI2
(dp3863
I0
(S'suffer'
I34675
tp3864
ssI3
(dp3865
I0
(S'silver'
I14033
tp3866
sI2
(dp3867
I0
(S'singer'
I11277
tp3868
sssI4
(dp3869
I0
(S'answer'
I49969
tp3870
sI5
(dp3871
I0
(S'sacred'
I9018
tp3872
sssI5
(dp3873
I0
(S'United'
I26396
tp3874
sI3
(dp3875
I0
(S'gifted'
I10941
tp3876
ssI5
(dp3877
I0
(S'basket'
I9316
tp3878
sssI6
(dp3879
I0
(S'bottom'
I24653
tp3880
sssI5
(dp3881
I0
(S'street'
I71645
tp3882
sI2
(dp3883
I0
(S'screen'
I30758
tp3884
sI3
(dp3885
I0
(S'stream'
I15400
tp3886
sssI3
(dp3887
I0
(S'survey'
I32784
tp3888
ssI4
(dp3889
I0
(S'status'
I33511
tp3890
sI4
(dp3891
I0
(S'scared'
I10752
tp3892
sI1
(dp3893
I0
(S'shared'
I7069
tp3894
sssI5
(dp3895
I0
(S'sudden'
I11370
tp3896
sssI5
(dp3897
I0
(S'museum'
I21715
tp3898
sI6
(dp3899
I0
(S'switch'
I12508
tp3900
sssI6
(dp3901
I0
(S'victim'
I36878
tp3902
sI4
(dp3903
I0
(S'rhythm'
I9010
tp3904
ssssI6
(dp3905
I0
(S'scream'
I17342
tp3906
sI4
(dp3907
I0
(S'sodium'
I7998
tp3908
ssI5
(dp3909
I0
(S'symbol'
I14596
tp3910
sI5
(dp3911
I0
(S'wisdom'
I10561
tp3912
ssI6
(dp3913
I0
(S'Muslim'
I13147
tp3914
sssssI5
(dp3915
I0
(S'number'
I186005
tp3916
sI3
(dp3917
I0
(S'murder'
I28335
tp3918
sI3
(dp3919
I0
(S'runner'
I6333
tp3920
sI2
(dp3921
I0
(S'hunger'
I5460
tp3922
ssssI4
(dp3923
I0
(S'father'
I145051
tp3924
sI1
(dp3925
I0
(S'rather'
I44934
tp3926
sI1
(dp3927
I0
(S'gather'
I27659
tp3928
sssI2
(dp3929
I0
(S'farmer'
I23005
tp3930
ssI3
(dp3931
I0
(S'career'
I52101
tp3932
sI2
(dp3933
I0
(S'cancer'
I39407
tp3934
ssI3
(dp3935
I0
(S'lawyer'
I47853
tp3936
sI2
(dp3937
I0
(S'ladder'
I5720
tp3938
ssI3
(dp3939
I0
(S'danger'
I23244
tp3940
sI1
(dp3941
I0
(S'dancer'
I7664
tp3942
ssI2
(dp3943
I0
(S'manner'
I20012
tp3944
sI2
(dp3945
I0
(S'wander'
I9822
tp3946
sI2
(dp3947
I0
(S'banker'
I5933
tp3948
ssssssI4
(dp3949
I0
(S'finger'
I40842
tp3950
sssI4
(dp3951
I0
(S'dinner'
I37156
tp3952
sI1
(dp3953
I0
(S'winner'
I19216
tp3954
ssI2
(dp3955
I0
(S'differ'
I11222
tp3956
ssI3
(dp3957
I0
(S'driver'
I31633
tp3958
sI2
(dp3959
I0
(S'drawer'
I6665
tp3960
ssI4
(dp3961
I0
(S'viewer'
I13479
tp3962
ssssI5
(dp3963
I0
(S'budget'
I39165
tp3964
sI3
(dp3965
I0
(S'burden'
I12054
tp3966
ssI4
(dp3967
I0
(S'tunnel'
I9024
tp3968
sI3
(dp3969
I0
(S'turkey'
I7757
tp3970
sssI5
(dp3971
I0
(S'guitar'
I7712
tp3972
sssI6
(dp3973
I0
(S'summit'
I9628
tp3974
sI4
(dp3975
I0
(S'suburb'
I8249
tp3976
ssssI5
(dp3977
I0
(S'market'
I100435
tp3978
sI2
(dp3979
I0
(S'target'
I29866
tp3980
sI3
(dp3981
I0
(S'jacket'
I15692
tp3982
sssI3
(dp3983
I0
(S'garden'
I38800
tp3984
sI3
(dp3985
I0
(S'barrel'
I9951
tp3986
ssI5
(dp3987
I0
(S'ticket'
I23902
tp3988
sssI4
(dp3989
I0
(S'assert'
I10125
tp3990
sI5
(dp3991
I0
(S'cancel'
I6932
tp3992
sssI5
(dp3993
I0
(S'factor'
I57612
tp3994
sI6
(dp3995
I0
(S'indeed'
I46184
tp3996
sI3
(dp3997
I0
(S'insert'
I6067
tp3998
ssI4
(dp3999
I0
(S'asleep'
I10684
tp4000
sI5
(dp4001
I0
(S'hidden'
I6787
tp4002
sssI5
(dp4003
I0
(S'travel'
I35746
tp4004
sI5
(dp4005
I0
(S'oxygen'
I7191
tp4006
sssI6
(dp4007
I0
(S'submit'
I9507
tp4008
ssssI6
(dp4009
I0
(S'doctor'
I69446
tp4010
sI3
(dp4011
I0
(S'editor'
I27734
tp4012
ssI4
(dp4013
I0
(S'button'
I12552
tp4014
ssssI6
(dp4015
I0
(S'social'
I132899
tp4016
sI3
(dp4017
I0
(S'signal'
I16835
tp4018
ssI4
(dp4019
I0
(S'spring'
I44085
tp4020
sI1
(dp4021
I0
(S'string'
I11974
tp4022
ssI2
(dp4023
I0
(S'saving'
I15917
tp4024
sI3
(dp4025
I0
(S'shrink'
I5617
tp4026
sssI3
(dp4027
I0
(S'spread'
I27266
tp4028
sI4
(dp4029
I0
(S'script'
I8924
tp4030
sI2
(dp4031
I0
(S'strict'
I8013
tp4032
ssI3
(dp4033
I0
(S'shrimp'
I6631
tp4034
ssssI4
(dp4035
I0
(S'streak'
I5826
tp4036
ssI5
(dp4037
I0
(S'racism'
I7026
tp4038
ssI6
(dp4039
I0
(S'visual'
I17316
tp4040
sI2
(dp4041
I0
(S'fiscal'
I8005
tp4042
sI3
(dp4043
I0
(S'casual'
I6946
tp4044
sssI4
(dp4045
I0
(S'brutal'
I5193
tp4046
ssssI5
(dp4047
I0
(S'strong'
I83677
tp4048
sI3
(dp4049
I0
(S'stress'
I21813
tp4050
sI3
(dp4051
I0
(S'strain'
I7713
tp4052
sssI4
(dp4053
I0
(S'studio'
I24765
tp4054
sI4
(dp4055
I0
(S'steady'
I10715
tp4056
ssI5
(dp4057
I0
(S'silent'
I16802
tp4058
sI4
(dp4059
I0
(S'salmon'
I8860
tp4060
sssI6
(dp4061
I0
(S'cotton'
I9734
tp4062
sssI5
(dp4063
I0
(S'safety'
I34188
tp4064
sI3
(dp4065
I0
(S'salary'
I13885
tp4066
ssI5
(dp4067
I0
(S'spirit'
I32942
tp4068
sI3
(dp4069
I0
(S'slight'
I10500
tp4070
ssI5
(dp4071
I0
(S'shadow'
I22803
tp4072
ssI6
(dp4073
I0
(S'casino'
I6205
tp4074
sssI6
(dp4075
I0
(S'vision'
I32358
tp4076
sI3
(dp4077
I0
(S'assign'
I12836
tp4078
ssssI6
(dp4079
I0
(S'insist'
I27205
tp4080
sI2
(dp4081
I0
(S'assist'
I13748
tp4082
ssI6
(dp4083
I0
(S'tactic'
I8993
tp4084
ssssI6
(dp4085
I0
(S'attend'
I33380
tp4086
sI2
(dp4087
I0
(S'extend'
I25969
tp4088
sI2
(dp4089
I0
(S'intend'
I23554
tp4090
sssI3
(dp4091
I0
(S'extent'
I21727
tp4092
sI2
(dp4093
I0
(S'intent'
I6879
tp4094
sssI4
(dp4095
I0
(S'aspect'
I29460
tp4096
sI3
(dp4097
I0
(S'assess'
I19220
tp4098
sssI5
(dp4099
I0
(S'absorb'
I9762
tp4100
sI5
(dp4101
I0
(S'insect'
I8814
tp4102
sssI6
(dp4103
I0
(S'critic'
I28244
tp4104
sI6
(dp4105
I0
(S'inform'
I15725
tp4106
sI4
(dp4107
I0
(S'random'
I7818
tp4108
ssI5
(dp4109
I0
(S'mm-hmm'
I13755
tp4110
sI5
(dp4111
I0
(S'bishop'
I8639
tp4112
ssssssssI6
(dp4113
I0
(S'during'
I190729
tp4114
sI2
(dp4115
I0
(S'dining'
I10843
tp4116
sI3
(dp4117
I0
(S'ruling'
I6947
tp4118
sssI3
(dp4119
I0
(S'living'
I28736
tp4120
sI2
(dp4121
I0
(S'timing'
I7345
tp4122
ssI3
(dp4123
I0
(S'rating'
I20413
tp4124
sI1
(dp4125
I0
(S'eating'
I7067
tp4126
ssI2
(dp4127
I0
(S'voting'
I6621
tp4128
ssI3
(dp4129
I0
(S'coming'
I5181
tp4130
ssssI4
(dp4131
I0
(S'friend'
I142697
tp4132
sI5
(dp4133
I0
(S'direct'
I26008
tp4134
sI4
(dp4135
I0
(S'bureau'
I6199
tp4136
ssI5
(dp4137
I0
(S'margin'
I8994
tp4138
sssI6
(dp4139
I0
(S'junior'
I13797
tp4140
sI5
(dp4141
I0
(S'cousin'
I12155
tp4142
ssI6
(dp4143
I0
(S'domain'
I8641
tp4144
ssssI5
(dp4145
I0
(S'within'
I114599
tp4146
sI3
(dp4147
I0
(S'obtain'
I24538
tp4148
ssI4
(dp4149
I0
(S'nation'
I97212
tp4150
sI1
(dp4151
I0
(S'notion'
I21801
tp4152
ssI2
(dp4153
I0
(S'action'
I80009
tp4154
sI2
(dp4155
I0
(S'option'
I35434
tp4156
sI2
(dp4157
I0
(S'motion'
I19649
tp4158
ssssI4
(dp4159
I0
(S'author'
I58300
tp4160
ssI5
(dp4161
I0
(S'origin'
I13654
tp4162
sI4
(dp4163
I0
(S'outfit'
I5850
tp4164
ssI6
(dp4165
I0
(S'ethics'
I9561
tp4166
ssssI5
(dp4167
I0
(S'artist'
I54353
tp4168
sI4
(dp4169
I0
(S'finish'
I43143
tp4170
sI4
(dp4171
I0
(S'crisis'
I32924
tp4172
ssI5
(dp4173
I0
(S'bright'
I29780
tp4174
sI6
(dp4175
I0
(S'afraid'
I27727
tp4176
sI6
(dp4177
I0
(S'entity'
I7276
tp4178
ssssI6
(dp4179
I0
(S'garlic'
I11449
tp4180
sssI5
(dp4181
I0
(S'Indian'
I27100
tp4182
sI4
(dp4183
I0
(S'infant'
I10205
tp4184
ssI5
(dp4185
I0
(S'mutual'
I11566
tp4186
sI6
(dp4187
I0
(S'carbon'
I10799
tp4188
sI6
(dp4189
I0
(S'invent'
I8461
tp4190
ssssI6
(dp4191
I0
(S'fabric'
I10320
tp4192
sI4
(dp4193
I0
(S'forbid'
I5167
tp4194
ssssI6
(dp4195
I0
(S'modern'
I38372
tp4196
sI3
(dp4197
I0
(S'Korean'
I8441
tp4198
ssI5
(dp4199
I0
(S'mirror'
I20081
tp4200
ssI6
(dp4201
I0
(S'island'
I24311
tp4202
sI5
(dp4203
I0
(S'clinic'
I14016
tp4204
sssssI6
(dp4205
I0
(S'moment'
I109720
tp4206
sI3
(dp4207
I0
(S'forest'
I35429
tp4208
sI4
(dp4209
I0
(S'client'
I34027
tp4210
sI3
(dp4211
I0
(S'talent'
I17474
tp4212
sI3
(dp4213
I0
(S'accent'
I6486
tp4214
sssssI4
(dp4215
I0
(S'threat'
I37022
tp4216
sI3
(dp4217
I0
(S'arrest'
I16205
tp4218
sI4
(dp4219
I0
(S'format'
I7910
tp4220
sssI6
(dp4221
I0
(S'colony'
I7822
tp4222
sI4
(dp4223
I0
(S'modify'
I8997
tp4224
ssssI5
(dp4225
I0
(S'normal'
I31265
tp4226
sI1
(dp4227
I0
(S'formal'
I16078
tp4228
ssI4
(dp4229
I0
(S'throat'
I14681
tp4230
sI2
(dp4231
I0
(S'thread'
I5340
tp4232
ssI5
(dp4233
I0
(S'borrow'
I9150
tp4234
sI2
(dp4235
I0
(S'horror'
I8875
tp4236
ssssI5
(dp4237
I0
(S'fourth'
I23227
tp4238
sI5
(dp4239
I0
(S'carrot'
I5718
tp4240
sssI6
(dp4241
I0
(S'French'
I27590
tp4242
sI6
(dp4243
I0
(S'banana'
I5458
tp4244
ssssI6
(dp4245
I0
(S'across'
I105559
tp4246
sI3
(dp4247
I0
(S'abroad'
I8788
tp4248
ssI4
(dp4249
I0
(S'narrow'
I17840
tp4250
ssI5
(dp4251
I0
(S'racial'
I15687
tp4252
sI4
(dp4253
I0
(S'vanish'
I7154
tp4254
sssI6
(dp4255
I0
(S'church'
I59466
tp4256
sI4
(dp4257
I0
(S'branch'
I19633
tp4258
ssI5
(dp4259
I0
(S'hungry'
I9653
tp4260
sI5
(dp4261
I0
(S'equity'
I7277
tp4262
sssI6
(dp4263
I0
(S'guilty'
I17596
tp4264
sI5
(dp4265
I0
(S'tribal'
I6995
tp4266
sssssssI6
(dp4267
I0
(S'always'
I179474
tp4268
sI3
(dp4269
I0
(S'anyway'
I28170
tp4270
ssI4
(dp4271
I0
(S'almost'
I127907
tp4272
sI4
(dp4273
I0
(S'access'
I35310
tp4274
ssI5
(dp4275
I0
(S'attack'
I50898
tp4276
sI1
(dp4277
I0
(S'attach'
I14552
tp4278
ssI4
(dp4279
I0
(S'affair'
I27432
tp4280
ssI5
(dp4281
I0
(S'galaxy'
I11159
tp4282
sI5
(dp4283
I0
(S'canvas'
I7795
tp4284
ssssI6
(dp4285
I0
(S'toward'
I105984
tp4286
sssI5
(dp4287
I0
(S'others'
I115771
tp4288
sI4
(dp4289
I0
(S'unless'
I27908
tp4290
sI5
(dp4291
I0
(S'thanks'
I23061
tp4292
sssI5
(dp4293
I0
(S'appear'
I100671
tp4294
sI4
(dp4295
I0
(S'accept'
I49952
tp4296
sI3
(dp4297
I0
(S'affect'
I41496
tp4298
sssI5
(dp4299
I0
(S'breast'
I22362
tp4300
sI3
(dp4301
I0
(S'treaty'
I11689
tp4302
ssI6
(dp4303
I0
(S'afford'
I19035
tp4304
sssI6
(dp4305
I0
(S'famous'
I24631
tp4306
sssI6
(dp4307
I0
(S'agency'
I56954
tp4308
sI2
(dp4309
I0
(S'agenda'
I16449
tp4310
ssI5
(dp4311
I0
(S'animal'
I53127
tp4312
sI2
(dp4313
I0
(S'annual'
I28471
tp4314
ssI3
(dp4315
I0
(S'actual'
I21321
tp4316
ssI4
(dp4317
I0
(S'and/or'
I8481
tp4318
ssI5
(dp4319
I0
(S'impact'
I43782
tp4320
sI2
(dp4321
I0
(S'intact'
I5350
tp4322
ssI5
(dp4323
I0
(S'adjust'
I14564
tp4324
sssI6
(dp4325
I0
(S'breath'
I24668
tp4326
sssI6
(dp4327
I0
(S'flight'
I29535
tp4328
sI4
(dp4329
I0
(S'flavor'
I10143
tp4330
ssI5
(dp4331
I0
(S'ballot'
I9217
tp4332
ssI6
(dp4333
I0
(S'e-mail'
I22467
tp4334
sI4
(dp4335
I0
(S'tomato'
I14864
tp4336
sI5
(dp4337
I0
(S'unfair'
I5656
tp4338
sssssssI6
(dp4339
I0
(S'effect'
I95216
tp4340
sI2
(dp4341
I0
(S'effort'
I86473
tp4342
ssI3
(dp4343
I0
(S'object'
I35040
tp4344
sI4
(dp4345
I0
(S'except'
I19594
tp4346
sssI4
(dp4347
I0
(S'invest'
I18080
tp4348
sI3
(dp4349
I0
(S'honest'
I12916
tp4350
sI2
(dp4351
I0
(S'modest'
I9746
tp4352
ssssI5
(dp4353
I0
(S'energy'
I64139
tp4354
sI4
(dp4355
I0
(S'twenty'
I17491
tp4356
ssI5
(dp4357
I0
(S'camera'
I41218
tp4358
sI3
(dp4359
I0
(S'comedy'
I9596
tp4360
ssI4
(dp4361
I0
(S'govern'
I7668
tp4362
ssI5
(dp4363
I0
(S'credit'
I34578
tp4364
ssI6
(dp4365
I0
(S'ethnic'
I22632
tp4366
sI5
(dp4367
I0
(S'eighth'
I5814
tp4368
ssssI6
(dp4369
I0
(S'commit'
I26943
tp4370
sI2
(dp4371
I0
(S'combat'
I8675
tp4372
ssI4
(dp4373
I0
(S'rabbit'
I6095
tp4374
ssI5
(dp4375
I0
(S'import'
I6944
tp4376
ssI6
(dp4377
I0
(S'launch'
I20767
tp4378
sI5
(dp4379
I0
(S'makeup'
I8916
tp4380
sssssI6
(dp4381
I0
(S'window'
I68303
tp4382
sI5
(dp4383
I0
(S'common'
I55940
tp4384
sI6
(dp4385
I0
(S'injury'
I23935
tp4386
sI5
(dp4387
I0
(S'ritual'
I8883
tp4388
sI4
(dp4389
I0
(S'liquid'
I5948
tp4390
sssssI6
(dp4391
I0
(S'nobody'
I34280
tp4392
sI4
(dp4393
I0
(S'county'
I22675
tp4394
ssI5
(dp4395
I0
(S'column'
I16810
tp4396
sI5
(dp4397
I0
(S'occupy'
I11756
tp4398
ssI6
(dp4399
I0
(S'thirty'
I11637
tp4400
sssI6
(dp4401
I0
(S'tragic'
I6038
tp4402
sssssssssI7
(dp4403
I0
(S'because'
I438539
tp4404
sI3
(dp4405
I0
(S'lecture'
I8278
tp4406
ssI4
(dp4407
I0
(S'believe'
I178397
tp4408
sI4
(dp4409
I0
(S'receive'
I80250
tp4410
sI3
(dp4411
I0
(S'release'
I34301
tp4412
sI5
(dp4413
I0
(S'decline'
I18058
tp4414
sssI6
(dp4415
I0
(S'balance'
I22243
tp4416
sssI5
(dp4417
I0
(S'defense'
I59701
tp4418
sI3
(dp4419
I0
(S'license'
I10943
tp4420
sI4
(dp4421
I0
(S'reverse'
I8154
tp4422
sssI4
(dp4423
I0
(S'declare'
I20550
tp4424
ssI5
(dp4425
I0
(S'measure'
I43938
tp4426
sI2
(dp4427
I0
(S'feature'
I33344
tp4428
ssI3
(dp4429
I0
(S'gesture'
I10739
tp4430
sI2
(dp4431
I0
(S'venture'
I9278
tp4432
sI2
(dp4433
I0
(S'texture'
I5994
tp4434
ssssI6
(dp4435
I0
(S'precise'
I7211
tp4436
sssI6
(dp4437
I0
(S'breathe'
I15813
tp4438
sI5
(dp4439
I0
(S'bicycle'
I5960
tp4440
ssssI6
(dp4441
I0
(S'include'
I133563
tp4442
sI2
(dp4443
I0
(S'exclude'
I8780
tp4444
ssI4
(dp4445
I0
(S'picture'
I69229
tp4446
ssI5
(dp4447
I0
(S'recruit'
I9028
tp4448
sI5
(dp4449
I0
(S'execute'
I7671
tp4450
ssI6
(dp4451
I0
(S'confuse'
I8045
tp4452
sI4
(dp4453
I0
(S'cocaine'
I6207
tp4454
sssssI7
(dp4455
I0
(S'exhaust'
I5204
tp4456
sssI5
(dp4457
I0
(S'between'
I264158
tp4458
sI4
(dp4459
I0
(S'besides'
I10537
tp4460
ssI5
(dp4461
I0
(S'teacher'
I116100
tp4462
sI2
(dp4463
I0
(S'weather'
I22586
tp4464
sI1
(dp4465
I0
(S'leather'
I11155
tp4466
sI1
(dp4467
I0
(S'feather'
I5744
tp4468
ssssI4
(dp4469
I0
(S'recover'
I15786
tp4470
ssI5
(dp4471
I0
(S'refugee'
I13010
tp4472
sI4
(dp4473
I0
(S'related'
I9227
tp4474
ssI6
(dp4475
I0
(S'blanket'
I9385
tp4476
sssI6
(dp4477
I0
(S'benefit'
I48594
tp4478
sI3
(dp4479
I0
(S'beneath'
I19047
tp4480
ssI5
(dp4481
I0
(S'bedroom'
I20387
tp4482
sI6
(dp4483
I0
(S'request'
I16241
tp4484
sssI6
(dp4485
I0
(S'section'
I49764
tp4486
sI5
(dp4487
I0
(S'restore'
I12814
tp4488
ssI6
(dp4489
I0
(S'relieve'
I7352
tp4490
sssssI6
(dp4491
I0
(S'service'
I146122
tp4492
sI4
(dp4493
I0
(S'require'
I89280
tp4494
sI3
(dp4495
I0
(S'realize'
I61732
tp4496
sI4
(dp4497
I0
(S'genuine'
I7336
tp4498
sssI4
(dp4499
I0
(S'despite'
I51526
tp4500
sI4
(dp4501
I0
(S'reserve'
I7585
tp4502
ssI5
(dp4503
I0
(S'replace'
I32688
tp4504
sssI5
(dp4505
I0
(S'vehicle'
I29421
tp4506
sI5
(dp4507
I0
(S'deserve'
I14944
tp4508
ssI6
(dp4509
I0
(S'persist'
I6013
tp4510
sssI6
(dp4511
I0
(S'serious'
I50285
tp4512
sI2
(dp4513
I0
(S'nervous'
I14100
tp4514
ssssI5
(dp4515
I0
(S'perhaps'
I87060
tp4516
sI4
(dp4517
I0
(S'operate'
I29345
tp4518
ssI5
(dp4519
I0
(S'message'
I47533
tp4520
sI3
(dp4521
I0
(S'teenage'
I7030
tp4522
ssI4
(dp4523
I0
(S'average'
I29717
tp4524
sI5
(dp4525
I0
(S'welfare'
I19580
tp4526
sssI6
(dp4527
I0
(S'premise'
I5695
tp4528
ssI7
(dp4529
I0
(S'species'
I35804
tp4530
sssI6
(dp4531
I0
(S'welcome'
I25241
tp4532
sI5
(dp4533
I0
(S'revenue'
I22445
tp4534
sI4
(dp4535
I0
(S'resolve'
I15260
tp4536
sssI6
(dp4537
I0
(S'fortune'
I11815
tp4538
sI7
(dp4539
I0
(S'senator'
I12091
tp4540
sI4
(dp4541
I0
(S'secular'
I6560
tp4542
sssssI7
(dp4543
I0
(S'examine'
I35826
tp4544
sI5
(dp4545
I0
(S'statute'
I6838
tp4546
ssssI6
(dp4547
I0
(S'century'
I65667
tp4548
sI3
(dp4549
I0
(S'culture'
I67128
tp4550
sI2
(dp4551
I0
(S'capture'
I21018
tp4552
sssI4
(dp4553
I0
(S'mixture'
I14856
tp4554
sI4
(dp4555
I0
(S'costume'
I6349
tp4556
ssI7
(dp4557
I0
(S'penalty'
I12310
tp4558
sssI5
(dp4559
I0
(S'scatter'
I7461
tp4560
sI7
(dp4561
I0
(S'legally'
I5484
tp4562
sssI6
(dp4563
I0
(S'prepare'
I49208
tp4564
sI6
(dp4565
I0
(S'intense'
I14452
tp4566
sssI7
(dp4567
I0
(S'success'
I50541
tp4568
sI5
(dp4569
I0
(S'Chinese'
I32334
tp4570
ssI6
(dp4571
I0
(S'expense'
I16274
tp4572
ssssI7
(dp4573
I0
(S'cluster'
I9821
tp4574
sI4
(dp4575
I0
(S'counsel'
I9387
tp4576
ssI5
(dp4577
I0
(S'pleased'
I8502
tp4578
ssssI7
(dp4579
I0
(S'produce'
I74169
tp4580
sI3
(dp4581
I0
(S'promise'
I25720
tp4582
sI2
(dp4583
I0
(S'propose'
I21691
tp4584
sssI4
(dp4585
I0
(S'romance'
I6705
tp4586
ssI5
(dp4587
I0
(S'purpose'
I40084
tp4588
sI5
(dp4589
I0
(S'package'
I21665
tp4590
sI4
(dp4591
I0
(S'arrange'
I15258
tp4592
ssI6
(dp4593
I0
(S'dispute'
I12203
tp4594
sssI6
(dp4595
I0
(S'failure'
I28234
tp4596
sI5
(dp4597
I0
(S'finance'
I11501
tp4598
sI5
(dp4599
I0
(S'consume'
I10308
tp4600
sssI6
(dp4601
I0
(S'advance'
I14645
tp4602
sI3
(dp4603
I0
(S'enhance'
I15393
tp4604
ssI5
(dp4605
I0
(S'educate'
I10171
tp4606
sssssI6
(dp4607
I0
(S'disease'
I51211
tp4608
sI2
(dp4609
I0
(S'diverse'
I12015
tp4610
ssI3
(dp4611
I0
(S'discuss'
I46852
tp4612
ssI4
(dp4613
I0
(S'offense'
I11680
tp4614
ssI5
(dp4615
I0
(S'suppose'
I16562
tp4616
sI3
(dp4617
I0
(S'compose'
I8866
tp4618
ssI4
(dp4619
I0
(S'impulse'
I5305
tp4620
ssI5
(dp4621
I0
(S'endorse'
I7167
tp4622
sI5
(dp4623
I0
(S'glimpse'
I5567
tp4624
sssI6
(dp4625
I0
(S'miracle'
I8981
tp4626
sssI6
(dp4627
I0
(S'example'
I47134
tp4628
sI5
(dp4629
I0
(S'capable'
I13933
tp4630
ssI6
(dp4631
I0
(S'machine'
I38407
tp4632
sI2
(dp4633
I0
(S'vaccine'
I6761
tp4634
ssI4
(dp4635
I0
(S'acquire'
I17435
tp4636
ssI6
(dp4637
I0
(S'strange'
I23744
tp4638
ssI7
(dp4639
I0
(S'assault'
I11039
tp4640
ssssI7
(dp4641
I0
(S'account'
I36786
tp4642
sssI7
(dp4643
I0
(S'obvious'
I21052
tp4644
ssssI6
(dp4645
I0
(S'through'
I340921
tp4646
sI4
(dp4647
I0
(S'trouble'
I39659
tp4648
ssI5
(dp4649
I0
(S'product'
I70883
tp4650
sI4
(dp4651
I0
(S'pursuit'
I7070
tp4652
ssI5
(dp4653
I0
(S'circuit'
I6747
tp4654
ssI6
(dp4655
I0
(S'various'
I46777
tp4656
sI2
(dp4657
I0
(S'curious'
I9738
tp4658
ssI5
(dp4659
I0
(S'virtual'
I7776
tp4660
ssI6
(dp4661
I0
(S'formula'
I8965
tp4662
sI6
(dp4663
I0
(S'scratch'
I5629
tp4664
sssI7
(dp4665
I0
(S'storage'
I10893
tp4666
sssI7
(dp4667
I0
(S'theater'
I24447
tp4668
sI4
(dp4669
I0
(S'therapy'
I16351
tp4670
ssI6
(dp4671
I0
(S'garbage'
I6933
tp4672
sI5
(dp4673
I0
(S'terrain'
I5873
tp4674
sssssI6
(dp4675
I0
(S'provide'
I150879
tp4676
sI2
(dp4677
I0
(S'profile'
I12089
tp4678
ssI3
(dp4679
I0
(S'promote'
I29679
tp4680
ssI4
(dp4681
I0
(S'process'
I107341
tp4682
sI2
(dp4683
I0
(S'protest'
I11181
tp4684
ssI5
(dp4685
I0
(S'improve'
I40214
tp4686
sI2
(dp4687
I0
(S'approve'
I17329
tp4688
sssI6
(dp4689
I0
(S'routine'
I12576
tp4690
ssI7
(dp4691
I0
(S'survive'
I27682
tp4692
sssI5
(dp4693
I0
(S'brother'
I63406
tp4694
sI4
(dp4695
I0
(S'trailer'
I6713
tp4696
sI1
(dp4697
I0
(S'trainer'
I5845
tp4698
sssI5
(dp4699
I0
(S'British'
I32929
tp4700
ssI6
(dp4701
I0
(S'airline'
I17164
tp4702
sI4
(dp4703
I0
(S'forgive'
I8003
tp4704
ssI7
(dp4705
I0
(S'opposed'
I6418
tp4706
sssI7
(dp4707
I0
(S'publish'
I35062
tp4708
sI6
(dp4709
I0
(S'passage'
I15702
tp4710
sI7
(dp4711
I0
(S'serving'
I9453
tp4712
sssssI6
(dp4713
I0
(S'college'
I97038
tp4714
sI3
(dp4715
I0
(S'village'
I30741
tp4716
sI4
(dp4717
I0
(S'courage'
I8720
tp4718
sssI4
(dp4719
I0
(S'athlete'
I23868
tp4720
sI6
(dp4721
I0
(S'hostage'
I8605
tp4722
sssI5
(dp4723
I0
(S'biology'
I6334
tp4724
sI6
(dp4725
I0
(S'hormone'
I6230
tp4726
sssI6
(dp4727
I0
(S'certain'
I67228
tp4728
sI5
(dp4729
I0
(S'surface'
I39367
tp4730
sI4
(dp4731
I0
(S'perfect'
I33456
tp4732
ssI6
(dp4733
I0
(S'carrier'
I9251
tp4734
sssI6
(dp4735
I0
(S'shuttle'
I7593
tp4736
ssI7
(dp4737
I0
(S'involve'
I59542
tp4738
sI4
(dp4739
I0
(S'divorce'
I10322
tp4740
sI3
(dp4741
I0
(S'enforce'
I8162
tp4742
ssI6
(dp4743
I0
(S'uncover'
I5696
tp4744
sssI6
(dp4745
I0
(S'English'
I20235
tp4746
ssI7
(dp4747
I0
(S'towards'
I18305
tp4748
sI4
(dp4749
I0
(S'tourist'
I13895
tp4750
sI1
(dp4751
I0
(S'tourism'
I5429
tp4752
ssssssI7
(dp4753
I0
(S'perform'
I41667
tp4754
sI5
(dp4755
I0
(S'version'
I34456
tp4756
sI2
(dp4757
I0
(S'Persian'
I6340
tp4758
ssI3
(dp4759
I0
(S'verdict'
I6529
tp4760
ssI5
(dp4761
I0
(S'servant'
I7064
tp4762
sssI6
(dp4763
I0
(S'hearing'
I21560
tp4764
sI3
(dp4765
I0
(S'testing'
I13725
tp4766
ssI4
(dp4767
I0
(S'burning'
I6665
tp4768
ssI5
(dp4769
I0
(S'tension'
I15614
tp4770
sI4
(dp4771
I0
(S'testify'
I11843
tp4772
ssI6
(dp4773
I0
(S'barrier'
I12772
tp4774
sssI6
(dp4775
I0
(S'deposit'
I5497
tp4776
sI5
(dp4777
I0
(S'removal'
I5488
tp4778
ssssI7
(dp4779
I0
(S'Spanish'
I15512
tp4780
ssssI7
(dp4781
I0
(S'herself'
I52915
tp4782
sI4
(dp4783
I0
(S'Israeli'
I17967
tp4784
sI6
(dp4785
I0
(S'whereas'
I12668
tp4786
sssI5
(dp4787
I0
(S'healthy'
I26009
tp4788
sI5
(dp4789
I0
(S'charter'
I6011
tp4790
ssI6
(dp4791
I0
(S'channel'
I12975
tp4792
ssI7
(dp4793
I0
(S'consult'
I7778
tp4794
sssI6
(dp4795
I0
(S'totally'
I18720
tp4796
sI6
(dp4797
I0
(S'starter'
I7487
tp4798
ssI7
(dp4799
I0
(S'unusual'
I16997
tp4800
sI5
(dp4801
I0
(S'lawsuit'
I12656
tp4802
ssI7
(dp4803
I0
(S'chamber'
I12034
tp4804
sI2
(dp4805
I0
(S'chapter'
I10579
tp4806
ssI7
(dp4807
I0
(S'seventh'
I6517
tp4808
sssssI7
(dp4809
I0
(S'conduct'
I34909
tp4810
sI5
(dp4811
I0
(S'tobacco'
I10600
tp4812
ssI6
(dp4813
I0
(S'catalog'
I5925
tp4814
sI7
(dp4815
I0
(S'disturb'
I5532
tp4816
sssI7
(dp4817
I0
(S'alcohol'
I15877
tp4818
sI6
(dp4819
I0
(S'anxious'
I7096
tp4820
ssssssI7
(dp4821
I0
(S'against'
I204379
tp4822
sI3
(dp4823
I0
(S'analyst'
I22662
tp4824
ssI4
(dp4825
I0
(S'ancient'
I19818
tp4826
sI5
(dp4827
I0
(S'cabinet'
I11846
tp4828
sssI5
(dp4829
I0
(S'suggest'
I92643
tp4830
sI3
(dp4831
I0
(S'segment'
I10850
tp4832
ssI4
(dp4833
I0
(S'contest'
I10002
tp4834
sI3
(dp4835
I0
(S'closest'
I5506
tp4836
sssI5
(dp4837
I0
(S'address'
I39774
tp4838
sI2
(dp4839
I0
(S'actress'
I9448
tp4840
ssI6
(dp4841
I0
(S'consist'
I16648
tp4842
ssI7
(dp4843
I0
(S'elegant'
I6974
tp4844
sssI6
(dp4845
I0
(S'imagine'
I43487
tp4846
sI5
(dp4847
I0
(S'peasant'
I5609
tp4848
ssI6
(dp4849
I0
(S'achieve'
I35166
tp4850
sI7
(dp4851
I0
(S'organic'
I10572
tp4852
sssI7
(dp4853
I0
(S'deficit'
I15008
tp4854
sssI7
(dp4855
I0
(S'article'
I54871
tp4856
sI5
(dp4857
I0
(S'analyze'
I15587
tp4858
sI5
(dp4859
I0
(S'absence'
I13597
tp4860
ssI6
(dp4861
I0
(S'adviser'
I12112
tp4862
sI5
(dp4863
I0
(S'nominee'
I7138
tp4864
ssssI6
(dp4865
I0
(S'banking'
I7120
tp4866
ssI7
(dp4867
I0
(S'reading'
I23919
tp4868
sI1
(dp4869
I0
(S'leading'
I15665
tp4870
ssI2
(dp4871
I0
(S'meaning'
I24064
tp4872
ssI6
(dp4873
I0
(S'planner'
I5797
tp4874
sssssI6
(dp4875
I0
(S'society'
I81192
tp4876
sI4
(dp4877
I0
(S'science'
I45726
tp4878
sI7
(dp4879
I0
(S'faculty'
I20104
tp4880
sssI5
(dp4881
I0
(S'reality'
I38397
tp4882
sI3
(dp4883
I0
(S'density'
I6040
tp4884
ssI5
(dp4885
I0
(S'excited'
I8491
tp4886
ssI7
(dp4887
I0
(S'possess'
I11474
tp4888
sI3
(dp4889
I0
(S'confess'
I6815
tp4890
ssI4
(dp4891
I0
(S'consent'
I6239
tp4892
ssssI6
(dp4893
I0
(S'medical'
I59424
tp4894
sI3
(dp4895
I0
(S'Mexican'
I15514
tp4896
ssI5
(dp4897
I0
(S'exactly'
I52685
tp4898
sI4
(dp4899
I0
(S'readily'
I6964
tp4900
ssI6
(dp4901
I0
(S'scandal'
I10403
tp4902
ssI7
(dp4903
I0
(S'deliver'
I29169
tp4904
sI4
(dp4905
I0
(S'retired'
I7869
tp4906
ssssI6
(dp4907
I0
(S'private'
I57248
tp4908
sI3
(dp4909
I0
(S'climate'
I17189
tp4910
ssI4
(dp4911
I0
(S'mandate'
I7704
tp4912
ssI6
(dp4913
I0
(S'visible'
I14691
tp4914
sI4
(dp4915
I0
(S'entitle'
I8381
tp4916
ssI6
(dp4917
I0
(S'heavily'
I13964
tp4918
sssI7
(dp4919
I0
(S'reflect'
I40687
tp4920
sI2
(dp4921
I0
(S'respect'
I23274
tp4922
ssI4
(dp4923
I0
(S'dessert'
I6286
tp4924
ssI5
(dp4925
I0
(S'wealthy'
I10054
tp4926
sI6
(dp4927
I0
(S'endless'
I7458
tp4928
sssI6
(dp4929
I0
(S'setting'
I22004
tp4930
sI5
(dp4931
I0
(S'genetic'
I12069
tp4932
sssssI7
(dp4933
I0
(S'express'
I30947
tp4934
sI2
(dp4935
I0
(S'impress'
I9896
tp4936
ssI4
(dp4937
I0
(S'witness'
I18920
tp4938
sI1
(dp4939
I0
(S'fitness'
I9261
tp4940
ssI3
(dp4941
I0
(S'illness'
I14726
tp4942
sssI6
(dp4943
I0
(S'fantasy'
I10448
tp4944
ssI7
(dp4945
I0
(S'combine'
I26570
tp4946
sI2
(dp4947
I0
(S'bombing'
I10462
tp4948
ssI5
(dp4949
I0
(S'fucking'
I6472
tp4950
ssI6
(dp4951
I0
(S'silence'
I21169
tp4952
sI7
(dp4953
I0
(S'auction'
I5621
tp4954
ssssssI7
(dp4955
I0
(S'meeting'
I49916
tp4956
sI2
(dp4957
I0
(S'feeling'
I47349
tp4958
ssI3
(dp4959
I0
(S'wedding'
I15829
tp4960
sI3
(dp4961
I0
(S'ceiling'
I12668
tp4962
sssI5
(dp4963
I0
(S'massive'
I17551
tp4964
sI5
(dp4965
I0
(S'outline'
I5859
tp4966
sssI6
(dp4967
I0
(S'manager'
I46187
tp4968
sI6
(dp4969
I0
(S'vitamin'
I8245
tp4970
sI6
(dp4971
I0
(S'fragile'
I5125
tp4972
sssI7
(dp4973
I0
(S'dismiss'
I11160
tp4974
sI6
(dp4975
I0
(S'essence'
I8388
tp4976
ssssI7
(dp4977
I0
(S'quarter'
I27125
tp4978
sI6
(dp4979
I0
(S'classic'
I12610
tp4980
ssI7
(dp4981
I0
(S'anymore'
I21771
tp4982
sssssI7
(dp4983
I0
(S'several'
I124039
tp4984
sI2
(dp4985
I0
(S'federal'
I81826
tp4986
sI2
(dp4987
I0
(S'general'
I49657
tp4988
sssI3
(dp4989
I0
(S'central'
I52501
tp4990
sI2
(dp4991
I0
(S'neutral'
I6331
tp4992
ssI4
(dp4993
I0
(S'liberal'
I18228
tp4994
sI4
(dp4995
I0
(S'veteran'
I14366
tp4996
sssI5
(dp4997
I0
(S'overall'
I19031
tp4998
sssI4
(dp4999
I0
(S'develop'
I84835
tp5000
sI7
(dp5001
I0
(S'special'
I75298
tp5002
sssI5
(dp5003
I0
(S'someone'
I95608
tp5004
sI4
(dp5005
I0
(S'squeeze'
I11280
tp5006
ssI5
(dp5007
I0
(S'observe'
I30737
tp5008
sI4
(dp5009
I0
(S'oversee'
I6773
tp5010
ssI6
(dp5011
I0
(S'session'
I24010
tp5012
sI6
(dp5013
I0
(S'speaker'
I12889
tp5014
ssssI6
(dp5015
I0
(S'western'
I37389
tp5016
sI5
(dp5017
I0
(S'jewelry'
I6338
tp5018
ssI7
(dp5019
I0
(S'embrace'
I13183
tp5020
sssI7
(dp5021
I0
(S'regular'
I27244
tp5022
sI6
(dp5023
I0
(S'destroy'
I26177
tp5024
sI6
(dp5025
I0
(S'helpful'
I10120
tp5026
sssssI6
(dp5027
I0
(S'clearly'
I45912
tp5028
sI3
(dp5029
I0
(S'greatly'
I8648
tp5030
ssI4
(dp5031
I0
(S'nuclear'
I34264
tp5032
sI6
(dp5033
I0
(S'equally'
I14389
tp5034
sssI5
(dp5035
I0
(S'briefly'
I10125
tp5036
ssI6
(dp5037
I0
(S'weekend'
I33239
tp5038
sI5
(dp5039
I0
(S'rebuild'
I7474
tp5040
ssI6
(dp5041
I0
(S'battery'
I9793
tp5042
ssI7
(dp5043
I0
(S'stumble'
I7076
tp5044
sssI7
(dp5045
I0
(S'network'
I45122
tp5046
sI4
(dp5047
I0
(S'neither'
I20100
tp5048
ssI5
(dp5049
I0
(S'respond'
I42139
tp5050
sI5
(dp5051
I0
(S'mention'
I39815
tp5052
ssI7
(dp5053
I0
(S'nowhere'
I10658
tp5054
sssI6
(dp5055
I0
(S'eastern'
I25103
tp5056
sI5
(dp5057
I0
(S'extreme'
I13064
tp5058
sI6
(dp5059
I0
(S'descend'
I6896
tp5060
ssI7
(dp5061
I0
(S'pension'
I7660
tp5062
ssssI7
(dp5063
I0
(S'succeed'
I17423
tp5064
sI4
(dp5065
I0
(S'suicide'
I15145
tp5066
sssssI7
(dp5067
I0
(S'finally'
I81951
tp5068
sI3
(dp5069
I0
(S'usually'
I53477
tp5070
ssI4
(dp5071
I0
(S'loyalty'
I6604
tp5072
ssI5
(dp5073
I0
(S'victory'
I26422
tp5074
sI2
(dp5075
I0
(S'factory'
I16240
tp5076
ssI4
(dp5077
I0
(S'fiction'
I11701
tp5078
ssI6
(dp5079
I0
(S'closely'
I17220
tp5080
sI5
(dp5081
I0
(S'missile'
I15147
tp5082
ssI6
(dp5083
I0
(S'unhappy'
I5162
tp5084
sssI7
(dp5085
I0
(S'dynamic'
I7175
tp5086
sssI6
(dp5087
I0
(S'billion'
I65243
tp5088
sI5
(dp5089
I0
(S'violate'
I10822
tp5090
ssI6
(dp5091
I0
(S'mistake'
I26080
tp5092
sI4
(dp5093
I0
(S'isolate'
I6920
tp5094
sI6
(dp5095
I0
(S'hostile'
I6319
tp5096
sssI5
(dp5097
I0
(S'inspire'
I14771
tp5098
ssI6
(dp5099
I0
(S'Islamic'
I13323
tp5100
sssI7
(dp5101
I0
(S'economy'
I60990
tp5102
sI5
(dp5103
I0
(S'concede'
I6303
tp5104
ssssI7
(dp5105
I0
(S'outside'
I46628
tp5106
sI3
(dp5107
I0
(S'outcome'
I22721
tp5108
ssI4
(dp5109
I0
(S'justice'
I25377
tp5110
sI5
(dp5111
I0
(S'utilize'
I6607
tp5112
ssI6
(dp5113
I0
(S'episode'
I11070
tp5114
sssI5
(dp5115
I0
(S'Supreme'
I23904
tp5116
sI5
(dp5117
I0
(S'explode'
I9821
tp5118
ssI6
(dp5119
I0
(S'builder'
I5720
tp5120
sssI6
(dp5121
I0
(S'compare'
I48094
tp5122
sI2
(dp5123
I0
(S'compete'
I17264
tp5124
ssI5
(dp5125
I0
(S'explore'
I23744
tp5126
sI7
(dp5127
I0
(S'counter'
I11676
tp5128
sssI7
(dp5129
I0
(S"o'clock"
I6972
tp5130
ssssssssI7
(dp5131
I0
(S'another'
I240646
tp5132
sI3
(dp5133
I0
(S'whether'
I121921
tp5134
sI4
(dp5135
I0
(S'clothes'
I27033
tp5136
sssI4
(dp5137
I0
(S'nothing'
I126717
tp5138
sI6
(dp5139
I0
(S'pitcher'
I8835
tp5140
sI5
(dp5141
I0
(S'monster'
I8164
tp5142
sssI7
(dp5143
I0
(S'partner'
I37540
tp5144
sI3
(dp5145
I0
(S'painter'
I9153
tp5146
ssI4
(dp5147
I0
(S'pioneer'
I5755
tp5148
ssI5
(dp5149
I0
(S'whoever'
I6250
tp5150
ssssI5
(dp5151
I0
(S'problem'
I217728
tp5152
sI3
(dp5153
I0
(S'proceed'
I11808
tp5154
ssI4
(dp5155
I0
(S'protect'
I50649
tp5156
sI2
(dp5157
I0
(S'protein'
I14036
tp5158
ssI5
(dp5159
I0
(S'crowded'
p5160
I5196
tp5161
sssI5
(dp5162
I0
(S'grocery'
I9017
tp5163
sI5
(dp5164
I0
(S'trigger'
I7630
tp5165
ssI6
(dp5166
I0
(S'written'
I8371
tp5167
sssI6
(dp5168
I0
(S'however'
I142282
tp5169
sI2
(dp5170
I0
(S'forever'
I16890
tp5171
ssI4
(dp5172
I0
(S'soldier'
I39552
tp5173
sI4
(dp5174
I0
(S'founder'
I11570
tp5175
ssI5
(dp5176
I0
(S'convert'
I10990
tp5177
sssI5
(dp5178
I0
(S'officer'
I57617
tp5179
sI5
(dp5180
I0
(S'concern'
I55203
tp5181
sI1
(dp5182
I0
(S'concert'
I13270
tp5183
ssI6
(dp5184
I0
(S'whisper'
I15383
tp5185
sI4
(dp5186
I0
(S'shelter'
I10891
tp5187
ssI5
(dp5188
I0
(S'fighter'
I10306
tp5189
ssssI6
(dp5190
I0
(S'alleged'
I6658
tp5191
sssI6
(dp5192
I0
(S'pattern'
I40397
tp5193
sI4
(dp5194
I0
(S'fifteen'
I10739
tp5195
ssI5
(dp5196
I0
(S'kitchen'
I39332
tp5197
ssI6
(dp5198
I0
(S'sponsor'
I8542
tp5199
sssI7
(dp5200
I0
(S'anybody'
I28704
tp5201
sI7
(dp5202
I0
(S'emotion'
I16062
tp5203
ssssI7
(dp5204
I0
(S'instead'
I39051
tp5205
sI3
(dp5206
I0
(S'initial'
I19019
tp5207
sI3
(dp5208
I0
(S'install'
I13584
tp5209
ssI4
(dp5210
I0
(S'instant'
I5765
tp5211
sssI4
(dp5212
I0
(S'mystery'
I14211
tp5213
ssI5
(dp5214
I0
(S'anxiety'
I14088
tp5215
sI6
(dp5216
I0
(S'inherit'
I5563
tp5217
sssI6
(dp5218
I0
(S'monitor'
I14499
tp5219
sI4
(dp5220
I0
(S'monthly'
I8335
tp5221
sssssI6
(dp5222
I0
(S'country'
I223138
tp5223
sI3
(dp5224
I0
(S'control'
I90301
tp5225
ssI4
(dp5226
I0
(S'contain'
I42542
tp5227
sI2
(dp5228
I0
(S'contact'
I25218
tp5229
ssI3
(dp5230
I0
(S'context'
I29113
tp5231
sI1
(dp5232
I0
(S'content'
I21821
tp5233
ssI2
(dp5234
I0
(S'contend'
I8249
tp5235
sssI4
(dp5236
I0
(S'connect'
I22100
tp5237
sI4
(dp5238
I0
(S'confirm'
I19327
tp5239
sssI5
(dp5240
I0
(S'comfort'
I10674
tp5241
sI5
(dp5242
I0
(S'custody'
I5957
tp5243
ssI6
(dp5244
I0
(S'portray'
I9202
tp5245
sssI6
(dp5246
I0
(S'journey'
I13599
tp5247
sI4
(dp5248
I0
(S'roughly'
I12200
tp5249
ssssI5
(dp5250
I0
(S'history'
I114904
tp5251
sI4
(dp5252
I0
(S'justify'
I11409
tp5253
ssI5
(dp5254
I0
(S'surgery'
I20118
tp5255
sI3
(dp5256
I0
(S'slavery'
I5712
tp5257
ssI4
(dp5258
I0
(S'gallery'
I8963
tp5259
ssI5
(dp5260
I0
(S'shortly'
I10864
tp5261
sI6
(dp5262
I0
(S'inquiry'
I9136
tp5263
sssI6
(dp5264
I0
(S'hunting'
I12100
tp5265
sssI6
(dp5266
I0
(S'hundred'
I61266
tp5267
sI6
(dp5268
I0
(S'forward'
I47877
tp5269
sI5
(dp5270
I0
(S'curtain'
I8204
tp5271
ssI6
(dp5272
I0
(S'poverty'
I14891
tp5273
sssI7
(dp5274
I0
(S'doorway'
I7914
tp5275
sssI7
(dp5276
I0
(S'popular'
I42399
tp5277
sI5
(dp5278
I0
(S'capital'
I37443
tp5279
sI6
(dp5280
I0
(S'complex'
I23751
tp5281
sssI6
(dp5282
I0
(S'concept'
I35944
tp5283
sI3
(dp5284
I0
(S'collect'
I28946
tp5285
sI2
(dp5286
I0
(S'correct'
I20613
tp5287
ssI3
(dp5288
I0
(S'comment'
I27712
tp5289
ssI4
(dp5290
I0
(S'condemn'
I6418
tp5291
sssI5
(dp5292
I0
(S'cooking'
I9403
tp5293
sssssI6
(dp5294
I0
(S'already'
I115220
tp5295
sI5
(dp5296
I0
(S'ability'
I51476
tp5297
sI6
(dp5298
I0
(S'airport'
I20897
tp5299
sI7
(dp5300
I0
(S'thereby'
I7588
tp5301
ssssI6
(dp5302
I0
(S'somehow'
I22267
tp5303
sI5
(dp5304
I0
(S'portion'
I15677
tp5305
ssI6
(dp5306
I0
(S'abandon'
I15323
tp5307
sI5
(dp5308
I0
(S'cartoon'
I6403
tp5309
ssI6
(dp5310
I0
(S'sustain'
I10550
tp5311
ssI7
(dp5312
I0
(S'undergo'
I9826
tp5313
sI7
(dp5314
I0
(S'worried'
I9215
tp5315
ssssI7
(dp5316
I0
(S'appoint'
I9541
tp5317
sI4
(dp5318
I0
(S'captain'
I9087
tp5319
ssI6
(dp5320
I0
(S'habitat'
I9665
tp5321
ssssI7
(dp5322
I0
(S'thought'
I51509
tp5323
sI3
(dp5324
I0
(S'tonight'
I47549
tp5325
ssI5
(dp5326
I0
(S'violent'
I15765
tp5327
sI5
(dp5328
I0
(S'tighten'
I5665
tp5329
sssI6
(dp5330
I0
(S'chicken'
I24465
tp5331
sI6
(dp5332
I0
(S'scholar'
I17482
tp5333
ssI7
(dp5334
I0
(S'T-shirt'
I8386
tp5335
sssI7
(dp5336
I0
(S'citizen'
I36408
tp5337
sI4
(dp5338
I0
(S'limited'
I18532
tp5339
ssI5
(dp5340
I0
(S'visitor'
I21490
tp5341
ssI6
(dp5342
I0
(S'unknown'
I11095
tp5343
sI6
(dp5344
I0
(S'outdoor'
I8101
tp5345
sssI7
(dp5346
I0
(S'uniform'
I10193
tp5347
sssssI7
(dp5348
I0
(S'program'
I195985
tp5349
sI4
(dp5350
I0
(S'project'
I75446
tp5351
ssI5
(dp5352
I0
(S'natural'
I55526
tp5353
sI4
(dp5354
I0
(S'partial'
I5716
tp5355
ssI5
(dp5356
I0
(S'arrival'
I9302
tp5357
ssI7
(dp5358
I0
(S'growing'
I26858
tp5359
sI5
(dp5360
I0
(S'pretend'
I11330
tp5361
ssssI6
(dp5362
I0
(S'patient'
I72217
tp5363
sI5
(dp5364
I0
(S'writing'
I24995
tp5365
sI7
(dp5366
I0
(S'attract'
I19197
tp5367
sssI6
(dp5368
I0
(S'similar'
I55901
tp5369
ssI7
(dp5370
I0
(S'stomach'
I13845
tp5371
sssI7
(dp5372
I0
(S'without'
I172448
tp5373
sI5
(dp5374
I0
(S'attempt'
I31944
tp5375
sI6
(dp5376
I0
(S'distant'
I12542
tp5377
ssI7
(dp5378
I0
(S'edition'
I9638
tp5379
sssI6
(dp5380
I0
(S'station'
I46299
tp5381
sI5
(dp5382
I0
(S'warrior'
I7975
tp5383
ssI7
(dp5384
I0
(S'insight'
I11591
tp5385
sI7
(dp5386
I0
(S'handful'
I9735
tp5387
ssssI7
(dp5388
I0
(S'married'
I22352
tp5389
sI5
(dp5390
I0
(S'amazing'
I15124
tp5391
sI4
(dp5392
I0
(S'landing'
I7646
tp5393
sI2
(dp5394
I0
(S'dancing'
I5243
tp5395
ssssI6
(dp5396
I0
(S'ongoing'
I10721
tp5397
ssssssI7
(dp5398
I0
(S'student'
I255047
tp5399
sI3
(dp5400
I0
(S'evident'
I8753
tp5401
ssI4
(dp5402
I0
(S'current'
I61252
tp5403
sI4
(dp5404
I0
(S'subject'
I61397
tp5405
sI2
(dp5406
I0
(S'suspect'
I16194
tp5407
ssI4
(dp5408
I0
(S'suspend'
I7228
tp5409
ssI5
(dp5410
I0
(S'present'
I49659
tp5411
sI1
(dp5412
I0
(S'prevent'
I36421
tp5413
ssI3
(dp5414
I0
(S'element'
I33053
tp5415
sI3
(dp5416
I0
(S'payment'
I16704
tp5417
sssssI7
(dp5418
I0
(S'stadium'
I6977
tp5419
sssI5
(dp5420
I0
(S'support'
I76544
tp5421
sI5
(dp5422
I0
(S'surgeon'
I8519
tp5423
ssI6
(dp5424
I0
(S'predict'
I22942
tp5425
sI5
(dp5426
I0
(S'stretch'
I19014
tp5427
sI7
(dp5428
I0
(S'funding'
I16282
tp5429
sssI6
(dp5430
I0
(S'sibling'
I6102
tp5431
sssI7
(dp5432
I0
(S'finding'
I28246
tp5433
sI3
(dp5434
I0
(S'trading'
I8787
tp5435
ssI4
(dp5436
I0
(S'housing'
I16403
tp5437
ssssI6
(dp5438
I0
(S'company'
I203345
tp5439
sI2
(dp5440
I0
(S'command'
I14022
tp5441
ssI4
(dp5442
I0
(S'someday'
I5744
tp5443
ssI5
(dp5444
I0
(S'morning'
I114002
tp5445
sI2
(dp5446
I0
(S'working'
I11200
tp5447
ssI3
(dp5448
I0
(S'rolling'
I6066
tp5449
ssI5
(dp5450
I0
(S'council'
I10695
tp5451
sI4
(dp5452
I0
(S'convict'
I7940
tp5453
ssI7
(dp5454
I0
(S'harmony'
I5410
tp5455
sssI6
(dp5456
I0
(S'husband'
I60126
tp5457
ssI7
(dp5458
I0
(S'symptom'
I15886
tp5459
sssI6
(dp5460
I0
(S'himself'
I109288
tp5461
sI5
(dp5462
I0
(S'largely'
I22097
tp5463
sI7
(dp5464
I0
(S'missing'
I8232
tp5465
sssI6
(dp5466
I0
(S'variety'
I34242
tp5467
sI4
(dp5468
I0
(S'quietly'
I13503
tp5469
ssI5
(dp5470
I0
(S'tragedy'
I11039
tp5471
sI5
(dp5472
I0
(S'sharply'
I6966
tp5473
ssI6
(dp5474
I0
(S'liberty'
I7442
tp5475
sssI6
(dp5476
I0
(S'elderly'
I10976
tp5477
sI6
(dp5478
I0
(S'subsidy'
I6236
tp5479
ssI7
(dp5480
I0
(S'passing'
I5903
tp5481
sssI7
(dp5482
I0
(S'willing'
I29635
tp5483
sI1
(dp5484
I0
(S'killing'
I9109
tp5485
ssI3
(dp5486
I0
(S'fishing'
I18103
tp5487
ssI5
(dp5488
I0
(S'diamond'
I6743
tp5489
ssssI7
(dp5490
I0
(S'quality'
I52224
tp5491
sI3
(dp5492
I0
(S'utility'
I13150
tp5493
ssI4
(dp5494
I0
(S'Italian'
I12384
tp5495
ssI5
(dp5496
I0
(S'drawing'
I13377
tp5497
sI4
(dp5498
I0
(S'running'
I9271
tp5499
sI4
(dp5500
I0
(S'walking'
I7847
tp5501
sssI6
(dp5502
I0
(S'satisfy'
I10194
tp5503
sssI6
(dp5504
I0
(S'evening'
I40881
tp5505
sI2
(dp5506
I0
(S'opening'
I18058
tp5507
ssI3
(dp5508
I0
(S'warning'
I16205
tp5509
ssI4
(dp5510
I0
(S'parking'
I14970
tp5511
sI4
(dp5512
I0
(S'driving'
I7438
tp5513
sssI6
(dp5514
I0
(S'crucial'
I14234
tp5515
sssI7
(dp5516
I0
(S'journal'
I11849
tp5517
sI6
(dp5518
I0
(S'workout'
I6414
tp5519
sssssI7
(dp5520
I0
(S'funeral'
I11086
tp5521
sI5
(dp5522
I0
(S'ethical'
I9018
tp5523
ssI7
(dp5524
I0
(S'exhibit'
I9459
tp5525
sI3
(dp5526
I0
(S'exploit'
I5909
tp5527
ssI7
(dp5528
I0
(S'swallow'
I8583
tp5529
sI1
(dp5530
I0
(S'shallow'
I6512
tp5531
ssssssI7
(dp5532
I0
(S'million'
I176895
tp5533
sI2
(dp5534
I0
(S'mission'
I35217
tp5535
ssI4
(dp5536
I0
(S'opinion'
I34501
tp5537
sI4
(dp5538
I0
(S'fashion'
I18483
tp5539
sI2
(dp5540
I0
(S'passion'
I14632
tp5541
ssssI5
(dp5542
I0
(S'explain'
I80797
tp5543
sI6
(dp5544
I0
(S'foreign'
I57540
tp5545
sI4
(dp5546
I0
(S'horizon'
I9857
tp5547
ssI5
(dp5548
I0
(S'Russian'
I23739
tp5549
ssI6
(dp5550
I0
(S'qualify'
I10090
tp5551
ssI7
(dp5552
I0
(S'hallway'
I8717
tp5553
sssI7
(dp5554
I0
(S'illegal'
I17258
tp5555
sI4
(dp5556
I0
(S'mineral'
I5758
tp5557
ssI5
(dp5558
I0
(S'dilemma'
I6703
tp5559
sI5
(dp5560
I0
(S'minimal'
I6176
tp5561
sssI7
(dp5562
I0
(S'minimum'
I8011
tp5563
sI4
(dp5564
I0
(S'kingdom'
I5674
tp5565
ssI5
(dp5566
I0
(S'dignity'
I6585
tp5567
sssssI6
(dp5568
I0
(S'freedom'
I34174
tp5569
sI5
(dp5570
I0
(S'eyebrow'
I6212
tp5571
ssI6
(dp5572
I0
(S'African'
I34557
tp5573
sI5
(dp5574
I0
(S'holiday'
I18299
tp5575
ssI6
(dp5576
I0
(S'maximum'
I8075
tp5577
ssI7
(dp5578
I0
(S'gravity'
I7000
tp5579
sssI7
(dp5580
I0
(S'display'
I16806
tp5581
sI4
(dp5582
I0
(S'digital'
I15048
tp5583
sI4
(dp5584
I0
(S'highway'
I12649
tp5585
sssI5
(dp5586
I0
(S'musical'
I16931
tp5587
sI6
(dp5588
I0
(S'halfway'
I5695
tp5589
ssI7
(dp5590
I0
(S'library'
I16314
tp5591
sI4
(dp5592
I0
(S'lightly'
I8893
tp5593
ssI5
(dp5594
I0
(S'tightly'
I6643
tp5595
ssI6
(dp5596
I0
(S'happily'
I5331
tp5597
ssssI6
(dp5598
I0
(S'charity'
I9054
tp5599
sI6
(dp5600
I0
(S'playoff'
I8803
tp5601
sssI7
(dp5602
I0
(S'physics'
I9184
tp5603
ssssI7
(dp5604
I0
(S'quickly'
I56454
tp5605
sI4
(dp5606
I0
(S'frankly'
I8620
tp5607
ssI5
(dp5608
I0
(S'primary'
I26043
tp5609
sI2
(dp5610
I0
(S'privacy'
I9956
tp5611
ssI6
(dp5612
I0
(S'typical'
I19724
tp5613
sI3
(dp5614
I0
(S'radical'
I10924
tp5615
sI3
(dp5616
I0
(S'logical'
I5644
tp5617
sssI5
(dp5618
I0
(S'rapidly'
I13066
tp5619
ssssI6
(dp5620
I0
(S'painful'
I9896
tp5621
sI6
(dp5622
I0
(S'triumph'
I5337
tp5623
sssI7
(dp5624
I0
(S'plastic'
I24563
tp5625
sI4
(dp5626
I0
(S'traffic'
I21296
tp5627
sI5
(dp5628
I0
(S'Olympic'
I13072
tp5629
ssI6
(dp5630
I0
(S'coastal'
I6880
tp5631
sssI5
(dp5632
I0
(S'crystal'
I8035
tp5633
sI6
(dp5634
I0
(S'chronic'
I8036
tp5635
sssI7
(dp5636
I0
(S'careful'
I17885
tp5637
ssssssssI8
(dp5638
I0
(S'American'
I214968
tp5639
sI4
(dp5640
I0
(S'medicine'
I25511
tp5641
sI4
(dp5642
I0
(S'musician'
I10580
tp5643
ssI5
(dp5644
I0
(S'merchant'
I6474
tp5645
ssI6
(dp5646
I0
(S'chemical'
I12673
tp5647
sI4
(dp5648
I0
(S'vertical'
I5950
tp5649
ssssI5
(dp5650
I0
(S'material'
I62440
tp5651
sI6
(dp5652
I0
(S'physical'
I51451
tp5653
sI8
(dp5654
I0
(S'emerging'
I5942
tp5655
ssI4
(dp5656
I0
(S'critical'
I35824
tp5657
sI2
(dp5658
I0
(S'clinical'
I13593
tp5659
ssI3
(dp5660
I0
(S'tropical'
I6473
tp5661
sssI6
(dp5662
I0
(S'heritage'
I9670
tp5663
ssI7
(dp5664
I0
(S'everyday'
I9065
tp5665
sssI7
(dp5666
I0
(S'freshman'
I7849
tp5667
sI7
(dp5668
I0
(S'delicate'
I7332
tp5669
sI1
(dp5670
I0
(S'dedicate'
I7226
tp5671
sssssI6
(dp5672
I0
(S'question'
I192070
tp5673
sI3
(dp5674
I0
(S'election'
I51322
tp5675
sI3
(dp5676
I0
(S'creation'
I16967
tp5677
sssI4
(dp5678
I0
(S'abortion'
I18925
tp5679
sI3
(dp5680
I0
(S'ambition'
I5962
tp5681
ssI5
(dp5682
I0
(S'emission'
I11688
tp5683
sssI5
(dp5684
I0
(S'decision'
I82429
tp5685
sI3
(dp5686
I0
(S'religion'
I28220
tp5687
ssI6
(dp5688
I0
(S'domestic'
I24313
tp5689
sI5
(dp5690
I0
(S'restrict'
I8340
tp5691
ssI7
(dp5692
I0
(S'superior'
I8632
tp5693
sssI7
(dp5694
I0
(S'festival'
I7775
tp5695
sssI6
(dp5696
I0
(S'everyone'
I74534
tp5697
sI4
(dp5698
I0
(S'exercise'
I25934
tp5699
sI6
(dp5700
I0
(S'overlook'
I9553
tp5701
sssI5
(dp5702
I0
(S'ceremony'
I11923
tp5703
ssI6
(dp5704
I0
(S'previous'
I30490
tp5705
sI1
(dp5706
I0
(S'precious'
I6716
tp5707
ssI5
(dp5708
I0
(S'regional'
I23182
tp5709
ssI6
(dp5710
I0
(S'interior'
I8370
tp5711
ssI7
(dp5712
I0
(S'electric'
I12007
tp5713
sI7
(dp5714
I0
(S'operator'
I9351
tp5715
ssssI7
(dp5716
I0
(S'resident'
I31836
tp5717
sI8
(dp5718
I0
(S'suburban'
I8463
tp5719
ssI5
(dp5720
I0
(S'hesitate'
I7462
tp5721
ssI7
(dp5722
I0
(S'European'
I31455
tp5723
sI6
(dp5724
I0
(S'civilian'
I9684
tp5725
ssssI8
(dp5726
I0
(S'campaign'
I64172
tp5727
sI5
(dp5728
I0
(S'maintain'
I43493
tp5729
sI5
(dp5730
I0
(S'Canadian'
I12820
tp5731
sssI6
(dp5732
I0
(S'mountain'
I31322
tp5733
ssI7
(dp5734
I0
(S'district'
I31327
tp5735
sI7
(dp5736
I0
(S'judicial'
I7213
tp5737
sssssI7
(dp5738
I0
(S'military'
I85152
tp5739
sI8
(dp5740
I0
(S'personal'
I67917
tp5741
sI8
(dp5742
I0
(S'flexible'
I6312
tp5743
sI7
(dp5744
I0
(S'comprise'
I6258
tp5745
sssI5
(dp5746
I0
(S'external'
I12260
tp5747
ssI6
(dp5748
I0
(S'terrible'
I18659
tp5749
sI3
(dp5750
I0
(S'terrific'
I6356
tp5751
ssI4
(dp5752
I0
(S'particle'
I7925
tp5753
ssI6
(dp5754
I0
(S'overcome'
I11801
tp5755
sssI7
(dp5756
I0
(S'specific'
I42397
tp5757
sI8
(dp5758
I0
(S'numerous'
I15389
tp5759
ssI7
(dp5760
I0
(S'wherever'
I7382
tp5761
sI7
(dp5762
I0
(S'offering'
I6856
tp5763
sssssI4
(dp5764
I0
(S'familiar'
I24515
tp5765
ssI6
(dp5766
I0
(S'hospital'
I58669
tp5767
sI8
(dp5768
I0
(S'relevant'
I12212
tp5769
ssI7
(dp5770
I0
(S'publicly'
I10169
tp5771
sssI7
(dp5772
I0
(S'official'
I79026
tp5773
sI8
(dp5774
I0
(S'pregnant'
I12329
tp5775
sI3
(dp5776
I0
(S'pleasant'
I7425
tp5777
ssI4
(dp5778
I0
(S'elephant'
I6038
tp5779
ssI6
(dp5780
I0
(S'persuade'
I8998
tp5781
ssI7
(dp5782
I0
(S'rhetoric'
I7765
tp5783
sssI6
(dp5784
I0
(S'chairman'
I28560
tp5785
sI7
(dp5786
I0
(S'survival'
I12335
tp5787
sI6
(dp5788
I0
(S'striking'
I5516
tp5789
ssssI7
(dp5790
I0
(S'corridor'
I8842
tp5791
ssssI8
(dp5792
I0
(S'indicate'
I53215
tp5793
sI4
(dp5794
I0
(S'motivate'
I8324
tp5795
ssI5
(dp5796
I0
(S'interact'
I6247
tp5797
ssI6
(dp5798
I0
(S'Democrat'
I46905
tp5799
sI8
(dp5800
I0
(S'airplane'
I8254
tp5801
ssI6
(dp5802
I0
(S'dominant'
I10143
tp5803
ssI7
(dp5804
I0
(S'marriage'
I38517
tp5805
sI3
(dp5806
I0
(S'mortgage'
I10022
tp5807
ssI7
(dp5808
I0
(S'internal'
I22025
tp5809
sI1
(dp5810
I0
(S'interval'
I5708
tp5811
ssI7
(dp5812
I0
(S'strictly'
I5532
tp5813
sssssI7
(dp5814
I0
(S'original'
I34368
tp5815
sI8
(dp5816
I0
(S'improved'
I6720
tp5817
ssI2
(dp5818
I0
(S'criminal'
I18424
tp5819
ssI6
(dp5820
I0
(S'horrible'
I7538
tp5821
ssI7
(dp5822
I0
(S'somewhat'
I18801
tp5823
sI5
(dp5824
I0
(S'homeland'
I6726
tp5825
ssssI8
(dp5826
I0
(S'approval'
I12795
tp5827
sI8
(dp5828
I0
(S'criteria'
I14160
tp5829
sI7
(dp5830
I0
(S'mechanic'
I6092
tp5831
sssI7
(dp5832
I0
(S'bacteria'
I8256
tp5833
sssssI7
(dp5834
I0
(S'national'
I166359
tp5835
sI1
(dp5836
I0
(S'rational'
I5941
tp5837
ssI4
(dp5838
I0
(S'donation'
I6086
tp5839
ssI5
(dp5840
I0
(S'relation'
I36963
tp5841
sI2
(dp5842
I0
(S'reaction'
I26771
tp5843
ssI3
(dp5844
I0
(S'location'
I26463
tp5845
sI2
(dp5846
I0
(S'vacation'
I12424
tp5847
ssI3
(dp5848
I0
(S'equation'
I7372
tp5849
sssI4
(dp5850
I0
(S'function'
I28011
tp5851
sI2
(dp5852
I0
(S'sanction'
I10163
tp5853
sI3
(dp5854
I0
(S'fraction'
I5313
tp5855
sssI5
(dp5856
I0
(S'invasion'
I9412
tp5857
sssI6
(dp5858
I0
(S'colonial'
I9628
tp5859
ssI7
(dp5860
I0
(S'parental'
I7251
tp5861
sI8
(dp5862
I0
(S'instinct'
I6076
tp5863
sssI8
(dp5864
I0
(S'proposal'
I22830
tp5865
sssI6
(dp5866
I0
(S'continue'
I126029
tp5867
sI8
(dp5868
I0
(S'withdraw'
I11352
tp5869
sI6
(dp5870
I0
(S'informal'
I5931
tp5871
ssI7
(dp5872
I0
(S'railroad'
I7796
tp5873
sssI5
(dp5874
I0
(S'dominate'
I14768
tp5875
sI4
(dp5876
I0
(S'intimate'
I6143
tp5877
ssI5
(dp5878
I0
(S'distinct'
I9682
tp5879
sI6
(dp5880
I0
(S'initiate'
I8630
tp5881
sssI7
(dp5882
I0
(S'entrance'
I11121
tp5883
sssI6
(dp5884
I0
(S'position'
I77124
tp5885
sI3
(dp5886
I0
(S'solution'
I32052
tp5887
ssI4
(dp5888
I0
(S'adoption'
I7986
tp5889
ssI6
(dp5890
I0
(S'starting'
I7118
tp5891
ssI7
(dp5892
I0
(S'estimate'
I20474
tp5893
sI2
(dp5894
I0
(S'ultimate'
I12542
tp5895
ssI6
(dp5896
I0
(S'ordinary'
I14776
tp5897
sI6
(dp5898
I0
(S'sprinkle'
I5777
tp5899
ssI7
(dp5900
I0
(S'alliance'
I8948
tp5901
ssssI8
(dp5902
I0
(S'cultural'
I45673
tp5903
sI8
(dp5904
I0
(S'earnings'
I11324
tp5905
ssI7
(dp5906
I0
(S'Internet'
I26983
tp5907
ssssI7
(dp5908
I0
(S'variable'
I22868
tp5909
sI8
(dp5910
I0
(S'occasion'
I14792
tp5911
sI4
(dp5912
I0
(S'champion'
I12247
tp5913
ssI7
(dp5914
I0
(S'protocol'
I6031
tp5915
sssI6
(dp5916
I0
(S'prisoner'
I13928
tp5917
sI7
(dp5918
I0
(S'artifact'
I5773
tp5919
sssI7
(dp5920
I0
(S'addition'
I17641
tp5921
sI8
(dp5922
I0
(S'calendar'
I5258
tp5923
ssI4
(dp5924
I0
(S'envision'
I5619
tp5925
ssI6
(dp5926
I0
(S'advocate'
I12565
tp5927
ssI7
(dp5928
I0
(S'designer'
I14210
tp5929
sssssI7
(dp5930
I0
(S'interest'
I96620
tp5931
sI4
(dp5932
I0
(S'incident'
I17880
tp5933
sI3
(dp5934
I0
(S'innocent'
I11530
tp5935
ssI5
(dp5936
I0
(S'instruct'
I6117
tp5937
sssI5
(dp5938
I0
(S'literary'
I12801
tp5939
ssI6
(dp5940
I0
(S'powerful'
I33151
tp5941
sI8
(dp5942
I0
(S'accident'
I20964
tp5943
sI8
(dp5944
I0
(S'historic'
I13507
tp5945
ssI6
(dp5946
I0
(S'feminist'
I5719
tp5947
ssI7
(dp5948
I0
(S'minister'
I19154
tp5949
sssI5
(dp5950
I0
(S'governor'
I20802
tp5951
ssI6
(dp5952
I0
(S'forehead'
I8123
tp5953
ssI7
(dp5954
I0
(S'aircraft'
I11591
tp5955
sI4
(dp5956
I0
(S'abstract'
I7165
tp5957
ssssI7
(dp5958
I0
(S'majority'
I36758
tp5959
sI3
(dp5960
I0
(S'favorite'
I23159
tp5961
sI4
(dp5962
I0
(S'priority'
I16586
tp5963
sssI5
(dp5964
I0
(S'decorate'
I5997
tp5965
ssI6
(dp5966
I0
(S'doctrine'
I8081
tp5967
sI8
(dp5968
I0
(S'ministry'
I6250
tp5969
ssI6
(dp5970
I0
(S'minimize'
I7139
tp5971
sI8
(dp5972
I0
(S'accuracy'
I6942
tp5973
ssssI7
(dp5974
I0
(S'enormous'
I17482
tp5975
sI8
(dp5976
I0
(S'birthday'
I13757
tp5977
sI8
(dp5978
I0
(S'athletic'
I10803
tp5979
sI7
(dp5980
I0
(S'adequate'
I9406
tp5981
sI8
(dp5982
I0
(S'illusion'
I6035
tp5983
ssssI7
(dp5984
I0
(S'delivery'
I11323
tp5985
sI6
(dp5986
I0
(S'diminish'
I6875
tp5987
ssssI6
(dp5988
I0
(S'moreover'
I16163
tp5989
sI8
(dp5990
I0
(S'dynamics'
I7084
tp5991
sssI7
(dp5992
I0
(S'currency'
I7753
tp5993
sI8
(dp5994
I0
(S'metaphor'
I7461
tp5995
ssssI8
(dp5996
I0
(S'presence'
I30624
tp5997
sI5
(dp5998
I0
(S'reminder'
I5681
tp5999
ssI6
(dp6000
I0
(S'register'
I9389
tp6001
sI4
(dp6002
I0
(S'retailer'
I5915
tp6003
sssI7
(dp6004
I0
(S'northern'
I23783
tp6005
sI8
(dp6006
I0
(S'detailed'
I10006
tp6007
ssI6
(dp6008
I0
(S'outsider'
I5690
tp6009
ssI7
(dp6010
I0
(S'constant'
I14069
tp6011
sssssI8
(dp6012
I0
(S'practice'
I73745
tp6013
sI4
(dp6014
I0
(S'politics'
I41758
tp6015
sI5
(dp6016
I0
(S'province'
I9491
tp6017
ssI6
(dp6018
I0
(S'creative'
I17597
tp6019
sssI5
(dp6020
I0
(S'training'
I49997
tp6021
sI3
(dp6022
I0
(S'teaching'
I24387
tp6023
ssI5
(dp6024
I0
(S'headline'
I9272
tp6025
sI1
(dp6026
I0
(S'deadline'
I6932
tp6027
ssssI6
(dp6028
I0
(S'evidence'
I65360
tp6029
sI3
(dp6030
I0
(S'guidance'
I7399
tp6031
ssI5
(dp6032
I0
(S'convince'
I16948
tp6033
ssI6
(dp6034
I0
(S'existing'
I16654
tp6035
sI2
(dp6036
I0
(S'exciting'
I10595
tp6037
ssI7
(dp6038
I0
(S'sandwich'
I8298
tp6039
sssI7
(dp6040
I0
(S'magazine'
I39197
tp6041
sI6
(dp6042
I0
(S'learning'
I28869
tp6043
sI8
(dp6044
I0
(S'multiple'
I19512
tp6045
sssssI7
(dp6046
I0
(S'approach'
I53980
tp6047
sI8
(dp6048
I0
(S'exchange'
I24826
tp6049
sI8
(dp6050
I0
(S'division'
I19772
tp6051
ssI6
(dp6052
I0
(S'reliable'
I8302
tp6053
sI3
(dp6054
I0
(S'eligible'
I5529
tp6055
sssI7
(dp6056
I0
(S'combined'
I6495
tp6057
sssI6
(dp6058
I0
(S'employee'
I42824
tp6059
ssI7
(dp6060
I0
(S'teaspoon'
I15767
tp6061
sI8
(dp6062
I0
(S'advanced'
I11626
tp6063
sI8
(dp6064
I0
(S'symbolic'
I6755
tp6065
ssI6
(dp6066
I0
(S'hardware'
I6951
tp6067
sssssI8
(dp6068
I0
(S'thousand'
I58307
tp6069
sI8
(dp6070
I0
(S'employer'
I14846
tp6071
sI8
(dp6072
I0
(S'scenario'
I11747
tp6073
sssI6
(dp6074
I0
(S'surround'
I22391
tp6075
ssI7
(dp6076
I0
(S'teenager'
I13615
tp6077
sI8
(dp6078
I0
(S'aluminum'
I6468
tp6079
ssssssI8
(dp6080
I0
(S'research'
I114802
tp6081
sI4
(dp6082
I0
(S'preserve'
I15527
tp6083
ssI5
(dp6084
I0
(S'remember'
I106879
tp6085
sI3
(dp6086
I0
(S'receiver'
I8882
tp6087
ssI5
(dp6088
I0
(S'required'
I5953
tp6089
ssI6
(dp6090
I0
(S'pressure'
I50773
tp6091
sssI6
(dp6092
I0
(S'describe'
I71377
tp6093
sI4
(dp6094
I0
(S'decrease'
I9291
tp6095
ssI5
(dp6096
I0
(S'generate'
I22213
tp6097
sI3
(dp6098
I0
(S'separate'
I19064
tp6099
ssI6
(dp6100
I0
(S'distract'
I5720
tp6101
sssI6
(dp6102
I0
(S'observer'
I13806
tp6103
sI8
(dp6104
I0
(S'regulate'
I8856
tp6105
ssI5
(dp6106
I0
(S'obstacle'
I8075
tp6107
ssI6
(dp6108
I0
(S'generous'
I6907
tp6109
ssI7
(dp6110
I0
(S'treasure'
I6648
tp6111
sssI7
(dp6112
I0
(S'creature'
I14852
tp6113
sI5
(dp6114
I0
(S'cemetery'
I5584
tp6115
ssI7
(dp6116
I0
(S'feedback'
I7735
tp6117
sI7
(dp6118
I0
(S'mentally'
I5793
tp6119
ssssI8
(dp6120
I0
(S'threaten'
I26587
tp6121
sI5
(dp6122
I0
(S'predator'
I5400
tp6123
ssI6
(dp6124
I0
(S'elevator'
I7535
tp6125
ssssI7
(dp6126
I0
(S'possible'
I85084
tp6127
sI8
(dp6128
I0
(S'director'
I79813
tp6129
sI8
(dp6130
I0
(S'security'
I58914
tp6131
sI8
(dp6132
I0
(S'academic'
I28216
tp6133
ssI7
(dp6134
I0
(S'Olympics'
I8039
tp6135
sssI5
(dp6136
I0
(S'educator'
I15447
tp6137
ssI6
(dp6138
I0
(S'greatest'
I22673
tp6139
sI6
(dp6140
I0
(S'dramatic'
I16233
tp6141
sI8
(dp6142
I0
(S'spectrum'
I7216
tp6143
ssssI7
(dp6144
I0
(S'whenever'
I14484
tp6145
sI7
(dp6146
I0
(S'frequent'
I9267
tp6147
ssssI1
(dp6148
I0
(S'possibly'
I20953
tp6149
ssI6
(dp6150
I0
(S'coverage'
I19522
tp6151
sI8
(dp6152
I0
(S'blessing'
I5222
tp6153
ssI3
(dp6154
I0
(S'moderate'
I9220
tp6155
sI2
(dp6156
I0
(S'tolerate'
I5871
tp6157
sssI6
(dp6158
I0
(S'formerly'
I5350
tp6159
ssI7
(dp6160
I0
(S'pleasure'
I19099
tp6161
sI6
(dp6162
I0
(S'perceive'
I17180
tp6163
ssssI7
(dp6164
I0
(S'increase'
I60442
tp6165
sI8
(dp6166
I0
(S'movement'
I56201
tp6167
sI4
(dp6168
I0
(S'momentum'
I5911
tp6169
ssI6
(dp6170
I0
(S'somebody'
I41639
tp6171
sI6
(dp6172
I0
(S'romantic'
I9561
tp6173
ssI7
(dp6174
I0
(S'conflict'
I34710
tp6175
sssI7
(dp6176
I0
(S'tomorrow'
I30098
tp6177
sI8
(dp6178
I0
(S'straight'
I22929
tp6179
ssssI6
(dp6180
I0
(S'contract'
I30906
tp6181
sI8
(dp6182
I0
(S'likewise'
I5821
tp6183
ssI7
(dp6184
I0
(S'teammate'
I6572
tp6185
sssI7
(dp6186
I0
(S'directly'
I34090
tp6187
sI8
(dp6188
I0
(S'emphasis'
I15337
tp6189
ssI6
(dp6190
I0
(S'lifetime'
I11293
tp6191
ssI7
(dp6192
I0
(S'homeless'
I9149
tp6193
sI7
(dp6194
I0
(S'proclaim'
I5716
tp6195
ssssssI8
(dp6196
I0
(S'consider'
I101987
tp6197
sI4
(dp6198
I0
(S'provider'
I10196
tp6199
ssI5
(dp6200
I0
(S'provided'
I7431
tp6201
ssI6
(dp6202
I0
(S'southern'
I35314
tp6203
sI6
(dp6204
I0
(S'producer'
I19679
tp6205
sI8
(dp6206
I0
(S'complain'
I19102
tp6207
ssI6
(dp6208
I0
(S'monument'
I6680
tp6209
sssI7
(dp6210
I0
(S'survivor'
I10317
tp6211
sI5
(dp6212
I0
(S'sunlight'
I7349
tp6213
ssssI7
(dp6214
I0
(S'identify'
I53484
tp6215
sI1
(dp6216
I0
(S'identity'
I31163
tp6217
ssI5
(dp6218
I0
(S'spending'
I14965
tp6219
ssI6
(dp6220
I0
(S'minority'
I23167
tp6221
sI8
(dp6222
I0
(S'downtown'
I10172
tp6223
ssI5
(dp6224
I0
(S'midnight'
I8440
tp6225
ssI6
(dp6226
I0
(S'drinking'
I8446
tp6227
sssI7
(dp6228
I0
(S'surprise'
I22275
tp6229
sI6
(dp6230
I0
(S'shortage'
I6776
tp6231
sssI8
(dp6232
I0
(S'yourself'
I43401
tp6233
sI8
(dp6234
I0
(S'prohibit'
I6896
tp6235
ssI7
(dp6236
I0
(S'portrait'
I12340
tp6237
ssssI8
(dp6238
I0
(S'purchase'
I16064
tp6239
sI8
(dp6240
I0
(S'ideology'
I8485
tp6241
sI2
(dp6242
I0
(S'theology'
I7866
tp6243
sssI7
(dp6244
I0
(S'humanity'
I8259
tp6245
ssssssI8
(dp6246
I0
(S'business'
I154468
tp6247
sI4
(dp6248
I0
(S'darkness'
I13275
tp6249
sI3
(dp6250
I0
(S'weakness'
I8275
tp6251
sssI5
(dp6252
I0
(S'Congress'
I62841
tp6253
sI3
(dp6254
I0
(S'progress'
I24645
tp6255
ssI6
(dp6256
I0
(S'Japanese'
I21800
tp6257
sI6
(dp6258
I0
(S'engineer'
I17991
tp6259
sI6
(dp6260
I0
(S'universe'
I16596
tp6261
ssssI7
(dp6262
I0
(S'basement'
I7988
tp6263
sssI6
(dp6264
I0
(S'building'
I78487
tp6265
sI8
(dp6266
I0
(S'response'
I56342
tp6267
sI8
(dp6268
I0
(S'entirely'
I19075
tp6269
sI3
(dp6270
I0
(S'actively'
I6232
tp6271
sssI5
(dp6272
I0
(S'disclose'
I5879
tp6273
ssI6
(dp6274
I0
(S'diagnose'
I7255
tp6275
sssI6
(dp6276
I0
(S'audience'
I36227
tp6277
sI5
(dp6278
I0
(S'judgment'
I19315
tp6279
ssI6
(dp6280
I0
(S'gasoline'
I6696
tp6281
sssI7
(dp6282
I0
(S'positive'
I39310
tp6283
sI8
(dp6284
I0
(S'opponent'
I15803
tp6285
sI6
(dp6286
I0
(S'autonomy'
I5849
tp6287
sssI6
(dp6288
I0
(S'customer'
I36000
tp6289
sI8
(dp6290
I0
(S'activist'
I12737
tp6291
ssI4
(dp6292
I0
(S'listener'
I5621
tp6293
ssI6
(dp6294
I0
(S'upstairs'
I6271
tp6295
sssI7
(dp6296
I0
(S'baseball'
I28551
tp6297
sI8
(dp6298
I0
(S'organism'
I6210
tp6299
ssI7
(dp6300
I0
(S'unlikely'
I11869
tp6301
sI8
(dp6302
I0
(S'mushroom'
I6454
tp6303
ssssssI7
(dp6304
I0
(S'activity'
I77980
tp6305
sI3
(dp6306
I0
(S'facility'
I30107
tp6307
ssI4
(dp6308
I0
(S'validity'
I6401
tp6309
ssI5
(dp6310
I0
(S'attorney'
I37959
tp6311
sI5
(dp6312
I0
(S'attitude'
I35437
tp6313
ssI6
(dp6314
I0
(S'artistic'
I9423
tp6315
ssI7
(dp6316
I0
(S'quantity'
I6833
tp6317
sssI6
(dp6318
I0
(S'behavior'
I62625
tp6319
sI8
(dp6320
I0
(S'absolute'
I9622
tp6321
sI8
(dp6322
I0
(S'socially'
I5814
tp6323
ssI6
(dp6324
I0
(S'assembly'
I6914
tp6325
sI6
(dp6326
I0
(S'casualty'
I6439
tp6327
sssI7
(dp6328
I0
(S'patience'
I6532
tp6329
sssI6
(dp6330
I0
(S'recovery'
I13703
tp6331
ssI7
(dp6332
I0
(S'opposite'
I15554
tp6333
sssI7
(dp6334
I0
(S'recently'
I55992
tp6335
sI4
(dp6336
I0
(S'friendly'
I11360
tp6337
ssI5
(dp6338
I0
(S'suddenly'
I43382
tp6339
sI5
(dp6340
I0
(S'strongly'
I14459
tp6341
sssI6
(dp6342
I0
(S'argument'
I33394
tp6343
sI8
(dp6344
I0
(S'extended'
I6641
tp6345
ssI3
(dp6346
I0
(S'document'
I29437
tp6347
ssI6
(dp6348
I0
(S'assemble'
I7996
tp6349
ssI7
(dp6350
I0
(S'strength'
I29769
tp6351
sssI7
(dp6352
I0
(S'strategy'
I49126
tp6353
sI8
(dp6354
I0
(S'planning'
I16434
tp6355
sI8
(dp6356
I0
(S'backyard'
I5890
tp6357
sssI6
(dp6358
I0
(S'apparent'
I13434
tp6359
ssI7
(dp6360
I0
(S'painting'
I39264
tp6361
sI8
(dp6362
I0
(S'concrete'
I8871
tp6363
ssI7
(dp6364
I0
(S'organize'
I22389
tp6365
sI8
(dp6366
I0
(S'contrast'
I21581
tp6367
sI6
(dp6368
I0
(S'boundary'
I12082
tp6369
ssssssI8
(dp6370
I0
(S'analysis'
I53840
tp6371
sI8
(dp6372
I0
(S'complete'
I32813
tp6373
sI8
(dp6374
I0
(S'thinking'
I21663
tp6375
sI8
(dp6376
I0
(S'bathroom'
I14725
tp6377
sssI6
(dp6378
I0
(S'supplier'
I6038
tp6379
sssI6
(dp6380
I0
(S'anywhere'
I18970
tp6381
sI7
(dp6382
I0
(S'database'
I8094
tp6383
sssI7
(dp6384
I0
(S'stimulus'
I6215
tp6385
ssssI8
(dp6386
I0
(S'daughter'
I60424
tp6387
sI1
(dp6388
I0
(S'laughter'
I9019
tp6389
ssI4
(dp6390
I0
(S'disaster'
I14684
tp6391
ssI5
(dp6392
I0
(S'discover'
I40489
tp6393
sI3
(dp6394
I0
(S'disorder'
I14780
tp6395
ssI5
(dp6396
I0
(S'diabetes'
I7073
tp6397
ssI7
(dp6398
I0
(S'talented'
I6584
tp6399
sssI6
(dp6400
I0
(S'consumer'
I38079
tp6401
sI6
(dp6402
I0
(S'stranger'
I12261
tp6403
sI5
(dp6404
I0
(S'offender'
I5417
tp6405
sssI7
(dp6406
I0
(S'investor'
I22410
tp6407
sI8
(dp6408
I0
(S'disagree'
I12280
tp6409
sI3
(dp6410
I0
(S'disabled'
I5952
tp6411
sssssI7
(dp6412
I0
(S'distance'
I31380
tp6413
sI8
(dp6414
I0
(S'supposed'
I31005
tp6415
ssI4
(dp6416
I0
(S'dissolve'
I6157
tp6417
ssI5
(dp6418
I0
(S'discount'
I5809
tp6419
sssI8
(dp6420
I0
(S'resource'
I53398
tp6421
sI4
(dp6422
I0
(S'resemble'
I10050
tp6423
ssI5
(dp6424
I0
(S'sentence'
I17162
tp6425
sI4
(dp6426
I0
(S'instance'
I10885
tp6427
sssI6
(dp6428
I0
(S'prospect'
I14521
tp6429
ssI7
(dp6430
I0
(S'collapse'
I9163
tp6431
sI7
(dp6432
I0
(S'Hispanic'
I8690
tp6433
sssI8
(dp6434
I0
(S'sidewalk'
I7668
tp6435
sssssI8
(dp6436
I0
(S'together'
I119186
tp6437
sI8
(dp6438
I0
(S'although'
I107925
tp6439
sI8
(dp6440
I0
(S'probably'
I99754
tp6441
sI8
(dp6442
I0
(S'standard'
I49876
tp6443
sI3
(dp6444
I0
(S'standing'
I9691
tp6445
ssI4
(dp6446
I0
(S'landmark'
I5332
tp6447
ssI6
(dp6448
I0
(S'evaluate'
I15780
tp6449
sI7
(dp6450
I0
(S'changing'
I9055
tp6451
sI8
(dp6452
I0
(S'syndrome'
I6157
tp6453
ssssI7
(dp6454
I0
(S'swimming'
I5735
tp6455
ssI8
(dp6456
I0
(S'wildlife'
I7361
tp6457
sssI5
(dp6458
I0
(S'sexually'
I6806
tp6459
ssI6
(dp6460
I0
(S'republic'
I7519
tp6461
sI7
(dp6462
I0
(S'scramble'
I6061
tp6463
sssI7
(dp6464
I0
(S'industry'
I73055
tp6465
sI8
(dp6466
I0
(S'shopping'
I11957
tp6467
sI8
(dp6468
I0
(S'peaceful'
I7704
tp6469
sssI6
(dp6470
I0
(S'graduate'
I16803
tp6471
ssI7
(dp6472
I0
(S'capacity'
I21102
tp6473
sI4
(dp6474
I0
(S'equality'
I5841
tp6475
sssssI5
(dp6476
I0
(S'Catholic'
I20866
tp6477
ssI6
(dp6478
I0
(S'actually'
I105155
tp6479
sI8
(dp6480
I0
(S'profound'
I7477
tp6481
ssI7
(dp6482
I0
(S'announce'
I33305
tp6483
sssI7
(dp6484
I0
(S'economic'
I90392
tp6485
sI8
(dp6486
I0
(S'valuable'
I12628
tp6487
sI5
(dp6488
I0
(S'annually'
I6928
tp6489
ssI7
(dp6490
I0
(S'grateful'
I7597
tp6491
sssI7
(dp6492
I0
(S'exposure'
I15979
tp6493
sI6
(dp6494
I0
(S'dialogue'
I11706
tp6495
sI7
(dp6496
I0
(S'handsome'
I7512
tp6497
sssI7
(dp6498
I0
(S'accurate'
I11842
tp6499
sI8
(dp6500
I0
(S'classify'
I5964
tp6501
ssssssI5
(dp6502
I0
(S'computer'
I67399
tp6503
sI5
(dp6504
I0
(S'taxpayer'
I10113
tp6505
ssI6
(dp6506
I0
(S'transfer'
I14686
tp6507
sI3
(dp6508
I0
(S'traveler'
I7336
tp6509
ssI4
(dp6510
I0
(S'frontier'
I5897
tp6511
ssssI6
(dp6512
I0
(S'whatever'
I50200
tp6513
sI8
(dp6514
I0
(S'fighting'
I9274
tp6515
ssI5
(dp6516
I0
(S'shoulder'
I42843
tp6517
sI8
(dp6518
I0
(S'negative'
I26847
tp6519
sssI6
(dp6520
I0
(S'reporter'
I30416
tp6521
sI8
(dp6522
I0
(S'conceive'
I6486
tp6523
ssI6
(dp6524
I0
(S'lawmaker'
I5755
tp6525
sssI7
(dp6526
I0
(S'violence'
I38474
tp6527
sI8
(dp6528
I0
(S'workshop'
I9926
tp6529
sI6
(dp6530
I0
(S'ancestor'
I6529
tp6531
sssI6
(dp6532
I0
(S'isolated'
I5482
tp6533
ssI7
(dp6534
I0
(S'software'
I23954
tp6535
sI8
(dp6536
I0
(S'expected'
I6144
tp6537
ssI6
(dp6538
I0
(S'longtime'
I8439
tp6539
ssI7
(dp6540
I0
(S'notebook'
I5884
tp6541
sssssI7
(dp6542
I0
(S'anything'
I120292
tp6543
sI8
(dp6544
I0
(S'property'
I40027
tp6545
sI1
(dp6546
I0
(S'properly'
I10783
tp6547
ssI4
(dp6548
I0
(S'proposed'
I10288
tp6549
ssI6
(dp6550
I0
(S'tendency'
I10642
tp6551
sI7
(dp6552
I0
(S'sympathy'
I6044
tp6553
sssI7
(dp6554
I0
(S'category'
I27219
tp6555
sI8
(dp6556
I0
(S'sequence'
I10041
tp6557
ssI6
(dp6558
I0
(S'commonly'
I7861
tp6559
ssI7
(dp6560
I0
(S'normally'
I12402
tp6561
sI7
(dp6562
I0
(S'colorful'
I5773
tp6563
ssssI8
(dp6564
I0
(S'struggle'
I21370
tp6565
sI5
(dp6566
I0
(S'schedule'
I15987
tp6567
ssI7
(dp6568
I0
(S'conclude'
I22247
tp6569
ssssI3
(dp6570
I0
(S'clothing'
I12078
tp6571
ssI5
(dp6572
I0
(S'shooting'
I11633
tp6573
ssI7
(dp6574
I0
(S'language'
I55799
tp6575
sI8
(dp6576
I0
(S'compound'
I8573
tp6577
sI8
(dp6578
I0
(S'textbook'
I5968
tp6579
sssI7
(dp6580
I0
(S'involved'
I33428
tp6581
sI8
(dp6582
I0
(S'slightly'
I26887
tp6583
sI8
(dp6584
I0
(S'confront'
I13757
tp6585
ssI5
(dp6586
I0
(S'neighbor'
I25497
tp6587
ssI7
(dp6588
I0
(S'football'
I25271
tp6589
sI7
(dp6590
I0
(S'platform'
I11209
tp6591
ssssI5
(dp6592
I0
(S'envelope'
I7241
tp6593
ssI7
(dp6594
I0
(S'relative'
I13541
tp6595
ssssssssI9
(dp6596
I0
(S'something'
I254910
tp6597
sI4
(dp6598
I0
(S'sometimes'
I84845
tp6599
sI8
(dp6600
I0
(S'breathing'
I5798
tp6601
ssI5
(dp6602
I0
(S'somewhere'
I23527
tp6603
ssI7
(dp6604
I0
(S'screening'
I5407
tp6605
sssI5
(dp6606
I0
(S'following'
I26643
tp6607
sI6
(dp6608
I0
(S'remaining'
I15992
tp6609
sI4
(dp6610
I0
(S'promising'
I7075
tp6611
ssI5
(dp6612
I0
(S'depending'
I10461
tp6613
sI5
(dp6614
I0
(S'operating'
I9480
tp6615
ssI6
(dp6616
I0
(S'lightning'
I5674
tp6617
sssI6
(dp6618
I0
(S'marketing'
I15259
tp6619
sI5
(dp6620
I0
(S'suffering'
I6955
tp6621
ssI7
(dp6622
I0
(S'complaint'
I14551
tp6623
sssssI6
(dp6624
I0
(S'community'
I133057
tp6625
sI2
(dp6626
I0
(S'commodity'
I5659
tp6627
ssI4
(dp6628
I0
(S'companion'
I8136
tp6629
ssI5
(dp6630
I0
(S'component'
I22085
tp6631
ssI6
(dp6632
I0
(S'formation'
I10553
tp6633
sI8
(dp6634
I0
(S'seemingly'
I8010
tp6635
sssI7
(dp6636
I0
(S'including'
I103650
tp6637
sI8
(dp6638
I0
(S'potential'
I31289
tp6639
sI6
(dp6640
I0
(S'dimension'
I14965
tp6641
sI6
(dp6642
I0
(S'promotion'
I7416
tp6643
ssI7
(dp6644
I0
(S'satellite'
I12438
tp6645
sssI7
(dp6646
I0
(S'container'
I8956
tp6647
sssI6
(dp6648
I0
(S'beginning'
I31866
tp6649
sssI8
(dp6650
I0
(S'according'
I83773
tp6651
sI2
(dp6652
I0
(S'recording'
I8866
tp6653
ssI4
(dp6654
I0
(S'regarding'
I17220
tp6655
sI3
(dp6656
I0
(S'reporting'
I7184
tp6657
sssI5
(dp6658
I0
(S'gathering'
I6671
tp6659
ssI6
(dp6660
I0
(S'determine'
I52130
tp6661
sI3
(dp6662
I0
(S'undermine'
I7762
tp6663
sssI7
(dp6664
I0
(S'scientist'
I37700
tp6665
ssI8
(dp6666
I0
(S'selection'
I16706
tp6667
sI4
(dp6668
I0
(S'isolation'
I6251
tp6669
sssI9
(dp6670
I0
(S'southwest'
I8190
tp6671
sI2
(dp6672
I0
(S'southeast'
I7589
tp6673
ssssI9
(dp6674
I0
(S'telephone'
I19311
tp6675
sI8
(dp6676
I0
(S'spokesman'
I12689
tp6677
sI7
(dp6678
I0
(S'uncertain'
I5951
tp6679
sssssI7
(dp6680
I0
(S'political'
I144437
tp6681
sI5
(dp6682
I0
(S'coalition'
I15720
tp6683
sI3
(dp6684
I0
(S'pollution'
I11396
tp6685
sssI6
(dp6686
I0
(S'condition'
I63489
tp6687
sI4
(dp6688
I0
(S'cognitive'
I10166
tp6689
ssI5
(dp6690
I0
(S'violation'
I11154
tp6691
sI3
(dp6692
I0
(S'evolution'
I11066
tp6693
sssI7
(dp6694
I0
(S'emotional'
I22773
tp6695
sI6
(dp6696
I0
(S'essential'
I19030
tp6697
sI8
(dp6698
I0
(S'routinely'
I5269
tp6699
sssssI7
(dp6700
I0
(S'operation'
I47276
tp6701
sI8
(dp6702
I0
(S'committee'
I26697
tp6703
sI6
(dp6704
I0
(S'continent'
I6730
tp6705
sI5
(dp6706
I0
(S'columnist'
I5997
tp6707
sssI7
(dp6708
I0
(S'worldwide'
I5781
tp6709
sssI7
(dp6710
I0
(S'sensitive'
I13115
tp6711
sI8
(dp6712
I0
(S'prominent'
I10948
tp6713
sI8
(dp6714
I0
(S'automatic'
I6580
tp6715
sssI5
(dp6716
I0
(S'sacrifice'
I6591
tp6717
ssI9
(dp6718
I0
(S'boyfriend'
I8755
tp6719
sI8
(dp6720
I0
(S'courtroom'
I6772
tp6721
ssssI6
(dp6722
I0
(S'tolerance'
I5513
tp6723
ssI9
(dp6724
I0
(S'construct'
I14234
tp6725
sI9
(dp6726
I0
(S'similarly'
I12180
tp6727
ssI5
(dp6728
I0
(S'continued'
I9402
tp6729
ssI7
(dp6730
I0
(S'northeast'
I6500
tp6731
ssssI8
(dp6732
I0
(S'situation'
I72603
tp6733
sI3
(dp6734
I0
(S'sensation'
I5882
tp6735
ssI4
(dp6736
I0
(S'attention'
I65271
tp6737
sI2
(dp6738
I0
(S'intention'
I13207
tp6739
ssI4
(dp6740
I0
(S'direction'
I41280
tp6741
sssI5
(dp6742
I0
(S'exception'
I14136
tp6743
sI2
(dp6744
I0
(S'reception'
I6896
tp6745
ssI4
(dp6746
I0
(S'infection'
I12402
tp6747
sI3
(dp6748
I0
(S'objection'
I5276
tp6749
sssI6
(dp6750
I0
(S'suspicion'
I7187
tp6751
sssI6
(dp6752
I0
(S'strategic'
I12347
tp6753
sI9
(dp6754
I0
(S'admission'
I10356
tp6755
sI5
(dp6756
I0
(S'confusion'
I8751
tp6757
sssI8
(dp6758
I0
(S'detective'
I7441
tp6759
sssI7
(dp6760
I0
(S'treatment'
I53390
tp6761
sI8
(dp6762
I0
(S'effective'
I35851
tp6763
sI8
(dp6764
I0
(S'so-called'
I14065
tp6765
sI6
(dp6766
I0
(S'mortality'
I5785
tp6767
ssI7
(dp6768
I0
(S'stability'
I10901
tp6769
sssI3
(dp6770
I0
(S'objective'
I15107
tp6771
ssI4
(dp6772
I0
(S'incentive'
I12105
tp6773
sI5
(dp6774
I0
(S'expertise'
I7219
tp6775
ssssI4
(dp6776
I0
(S'sentiment'
I6658
tp6777
ssI7
(dp6778
I0
(S'aesthetic'
I6647
tp6779
sssI8
(dp6780
I0
(S'certainly'
I59739
tp6781
sI8
(dp6782
I0
(S'household'
I18450
tp6783
sI9
(dp6784
I0
(S'immediate'
I15680
tp6785
sI8
(dp6786
I0
(S'assistant'
I11828
tp6787
ssssI9
(dp6788
I0
(S'immigrant'
I17615
tp6789
ssI6
(dp6790
I0
(S'celebrity'
I10756
tp6791
ssI7
(dp6792
I0
(S'apartment'
I31012
tp6793
sI8
(dp6794
I0
(S'substance'
I15909
tp6795
ssI9
(dp6796
I0
(S'commander'
I14425
tp6797
ssssI9
(dp6798
I0
(S'vegetable'
I19363
tp6799
sI9
(dp6800
I0
(S'confident'
I10831
tp6801
sI6
(dp6802
I0
(S'northwest'
I8650
tp6803
sssI7
(dp6804
I0
(S'hopefully'
I6986
tp6805
ssssI9
(dp6806
I0
(S'statement'
I42941
tp6807
sI4
(dp6808
I0
(S'agreement'
I38141
tp6809
ssI5
(dp6810
I0
(S'amendment'
I8132
tp6811
ssI6
(dp6812
I0
(S'excellent'
I16094
tp6813
sI5
(dp6814
I0
(S'dependent'
I10029
tp6815
sssI7
(dp6816
I0
(S'secretary'
I17922
tp6817
sI8
(dp6818
I0
(S'guideline'
I10303
tp6819
sI8
(dp6820
I0
(S'intensity'
I9238
tp6821
sssI7
(dp6822
I0
(S'defendant'
I9230
tp6823
sI8
(dp6824
I0
(S'integrity'
I8463
tp6825
ssssI8
(dp6826
I0
(S'interview'
I41594
tp6827
sI8
(dp6828
I0
(S'emergency'
I20796
tp6829
sI8
(dp6830
I0
(S'meanwhile'
I19504
tp6831
ssI9
(dp6832
I0
(S'franchise'
I6332
tp6833
sI8
(dp6834
I0
(S'threshold'
I5490
tp6835
sssI7
(dp6836
I0
(S'elsewhere'
I14884
tp6837
sssI6
(dp6838
I0
(S'otherwise'
I23793
tp6839
sI6
(dp6840
I0
(S'diversity'
I13872
tp6841
sI6
(dp6842
I0
(S'extensive'
I11580
tp6843
sssI7
(dp6844
I0
(S'extension'
I9672
tp6845
sssI7
(dp6846
I0
(S'necessity'
I7071
tp6847
sssI9
(dp6848
I0
(S'expensive'
I21706
tp6849
sI2
(dp6850
I0
(S'excessive'
I5633
tp6851
ssI3
(dp6852
I0
(S'defensive'
I11442
tp6853
sI2
(dp6854
I0
(S'offensive'
I9902
tp6855
sssI6
(dp6856
I0
(S'recession'
I8809
tp6857
ssI7
(dp6858
I0
(S'mechanism'
I12948
tp6859
sI9
(dp6860
I0
(S'ownership'
I8177
tp6861
ssssssI8
(dp6862
I0
(S'different'
I162411
tp6863
sI5
(dp6864
I0
(S'represent'
I58744
tp6865
sI4
(dp6866
I0
(S'implement'
I16124
tp6867
ssI5
(dp6868
I0
(S'reference'
I19559
tp6869
sI7
(dp6870
I0
(S'placement'
I6275
tp6871
sssI6
(dp6872
I0
(S'efficient'
I10452
tp6873
sssI6
(dp6874
I0
(S'important'
I144194
tp6875
sI6
(dp6876
I0
(S'permanent'
I13390
tp6877
sI8
(dp6878
I0
(S'interrupt'
I8757
tp6879
ssI7
(dp6880
I0
(S'interpret'
I12321
tp6881
sI7
(dp6882
I0
(S'fisherman'
I6317
tp6883
ssssI7
(dp6884
I0
(S'president'
I134203
tp6885
sI8
(dp6886
I0
(S'interfere'
I5709
tp6887
ssI4
(dp6888
I0
(S'recipient'
I7126
tp6889
ssI6
(dp6890
I0
(S'equipment'
I28023
tp6891
ssssI7
(dp6892
I0
(S'professor'
I46575
tp6893
sI8
(dp6894
I0
(S'concerned'
I34331
tp6895
sI8
(dp6896
I0
(S'terrorist'
I12169
tp6897
sI9
(dp6898
I0
(S'frequency'
I11284
tp6899
sssI9
(dp6900
I0
(S'brilliant'
I9493
tp6901
ssI5
(dp6902
I0
(S'wonderful'
I27494
tp6903
ssI7
(dp6904
I0
(S'afternoon'
I33202
tp6905
sI4
(dp6906
I0
(S'afterward'
I6353
tp6907
ssssI7
(dp6908
I0
(S'lifestyle'
I9904
tp6909
sI8
(dp6910
I0
(S'cooperate'
I6763
tp6911
sssI9
(dp6912
I0
(S'democracy'
I26039
tp6913
sI8
(dp6914
I0
(S'historian'
I13437
tp6915
ssI6
(dp6916
I0
(S'reluctant'
I6842
tp6917
ssI7
(dp6918
I0
(S'recommend'
I21707
tp6919
sI9
(dp6920
I0
(S'literally'
I13425
tp6921
sI6
(dp6922
I0
(S'integrate'
I9060
tp6923
ssssssI8
(dp6924
I0
(S'education'
I113731
tp6925
sI8
(dp6926
I0
(S'financial'
I47803
tp6927
sI8
(dp6928
I0
(S'authority'
I47309
tp6929
sI8
(dp6930
I0
(S'generally'
I33191
tp6931
sI9
(dp6932
I0
(S'hurricane'
I6439
tp6933
ssI7
(dp6934
I0
(S'undertake'
I7044
tp6935
sssI6
(dp6936
I0
(S'terrorism'
I13806
tp6937
ssI9
(dp6938
I0
(S'long-term'
I20841
tp6939
sI8
(dp6940
I0
(S'existence'
I15969
tp6941
ssI6
(dp6942
I0
(S'volunteer'
I14958
tp6943
ssI7
(dp6944
I0
(S'collector'
I6976
tp6945
ssssI7
(dp6946
I0
(S'inventory'
I7090
tp6947
sI8
(dp6948
I0
(S'liability'
I6775
tp6949
sssI9
(dp6950
I0
(S'procedure'
I29044
tp6951
sI8
(dp6952
I0
(S'celebrate'
I17421
tp6953
ssI9
(dp6954
I0
(S'accompany'
I13666
tp6955
ssssI7
(dp6956
I0
(S'primarily'
I17015
tp6957
sI8
(dp6958
I0
(S'testimony'
I12679
tp6959
sI8
(dp6960
I0
(S'economist'
I10625
tp6961
ssI9
(dp6962
I0
(S'signature'
I7349
tp6963
sssI7
(dp6964
I0
(S'therapist'
I7170
tp6965
sI9
(dp6966
I0
(S'processor'
I5882
tp6967
sssI9
(dp6968
I0
(S'adventure'
I11031
tp6969
sssI4
(dp6970
I0
(S'inflation'
I9758
tp6971
sI4
(dp6972
I0
(S'radiation'
I7912
tp6973
sI4
(dp6974
I0
(S'migration'
I6067
tp6975
ssssI9
(dp6976
I0
(S'challenge'
I40380
tp6977
sI4
(dp6978
I0
(S'colleague'
I24370
tp6979
ssI6
(dp6980
I0
(S'allegedly'
I5451
tp6981
ssI7
(dp6982
I0
(S'corporate'
I23621
tp6983
sI7
(dp6984
I0
(S'consensus'
I9250
tp6985
sssI8
(dp6986
I0
(S'framework'
I11710
tp6987
sI8
(dp6988
I0
(S'developer'
I8671
tp6989
sI9
(dp6990
I0
(S'nightmare'
I7895
tp6991
sI9
(dp6992
I0
(S'correctly'
I5884
tp6993
sssssI9
(dp6994
I0
(S'supporter'
I13970
tp6995
sI8
(dp6996
I0
(S'nonprofit'
I7482
tp6997
ssI6
(dp6998
I0
(S'temporary'
I9465
tp6999
sssssI9
(dp7000
I0
(S'recognize'
I50042
tp7001
sI5
(dp7002
I0
(S'technique'
I29828
tp7003
sI8
(dp7004
I0
(S'apologize'
I7485
tp7005
sssI6
(dp7006
I0
(S'executive'
I47338
tp7007
sI8
(dp7008
I0
(S'secondary'
I9121
tp7009
ssI3
(dp7010
I0
(S'exclusive'
I7402
tp7011
ssI6
(dp7012
I0
(S'emphasize'
I18933
tp7013
sI8
(dp7014
I0
(S'reduction'
I15862
tp7015
sI7
(dp7016
I0
(S'negotiate'
I13043
tp7017
ssssI7
(dp7018
I0
(S'technical'
I17594
tp7019
sI8
(dp7020
I0
(S'criticize'
I12906
tp7021
ssI6
(dp7022
I0
(S'economics'
I9758
tp7023
ssI9
(dp7024
I0
(S'alongside'
I6166
tp7025
ssssI7
(dp7026
I0
(S'necessary'
I40776
tp7027
sI8
(dp7028
I0
(S'expansion'
I12054
tp7029
sI8
(dp7030
I0
(S'narrative'
I10954
tp7031
ssI4
(dp7032
I0
(S'execution'
I6278
tp7033
sssI9
(dp7034
I0
(S'convinced'
I7389
tp7035
sI9
(dp7036
I0
(S'full-time'
I6945
tp7037
sssI6
(dp7038
I0
(S'telescope'
I12754
tp7039
ssI7
(dp7040
I0
(S'pregnancy'
I8944
tp7041
sssI8
(dp7042
I0
(S'establish'
I45921
tp7043
sI8
(dp7044
I0
(S'structure'
I43638
tp7045
sI8
(dp7046
I0
(S'beautiful'
I40052
tp7047
sI9
(dp7048
I0
(S'curiosity'
I5630
tp7049
sI7
(dp7050
I0
(S'specialty'
I5622
tp7051
ssssI9
(dp7052
I0
(S'physician'
I17707
tp7053
sI5
(dp7054
I0
(S'provision'
I13256
tp7055
sI6
(dp7056
I0
(S'publicity'
I5557
tp7057
ssssI7
(dp7058
I0
(S'tradition'
I32110
tp7059
sI9
(dp7060
I0
(S'seriously'
I18328
tp7061
sI8
(dp7062
I0
(S'workplace'
I6186
tp7063
sssI4
(dp7064
I0
(S'variation'
I11403
tp7065
ssI6
(dp7066
I0
(S'Christian'
I30726
tp7067
sI6
(dp7068
I0
(S'practical'
I15303
tp7069
sssssI9
(dp7070
I0
(S'counselor'
I12170
tp7071
sI8
(dp7072
I0
(S'sculpture'
I8659
tp7073
ssI5
(dp7074
I0
(S'conscious'
I7152
tp7075
sssI6
(dp7076
I0
(S'estimated'
I8464
tp7077
ssI7
(dp7078
I0
(S'surprised'
I18822
tp7079
sI8
(dp7080
I0
(S'criticism'
I17049
tp7081
sI8
(dp7082
I0
(S'explosion'
I10148
tp7083
sI9
(dp7084
I0
(S'stimulate'
I5898
tp7085
ssI7
(dp7086
I0
(S'portfolio'
I7663
tp7087
ssssssI9
(dp7088
I0
(S'carefully'
I22837
tp7089
sI8
(dp7090
I0
(S'childhood'
I16268
tp7091
sI9
(dp7092
I0
(S'voluntary'
I5504
tp7093
sssI9
(dp7094
I0
(S'identical'
I7247
tp7095
sI9
(dp7096
I0
(S'touchdown'
I6954
tp7097
ssI7
(dp7098
I0
(S'ambitious'
I6040
tp7099
sssI7
(dp7100
I0
(S'spiritual'
I17074
tp7101
sssssI9
(dp7102
I0
(S'difficult'
I63947
tp7103
sI8
(dp7104
I0
(S'available'
I63187
tp7105
sI8
(dp7106
I0
(S'religious'
I46425
tp7107
sI9
(dp7108
I0
(S'introduce'
I31345
tp7109
sI8
(dp7110
I0
(S'currently'
I21636
tp7111
sI8
(dp7112
I0
(S'universal'
I12590
tp7113
sssI5
(dp7114
I0
(S'influence'
I28387
tp7115
ssI7
(dp7116
I0
(S'extremely'
I20310
tp7117
sI8
(dp7118
I0
(S'cigarette'
I17160
tp7119
ssI7
(dp7120
I0
(S'instantly'
I6476
tp7121
ssssI6
(dp7122
I0
(S'reinforce'
I9345
tp7123
sI7
(dp7124
I0
(S'realistic'
I6786
tp7125
sssI8
(dp7126
I0
(S'breakfast'
I14397
tp7127
sI9
(dp7128
I0
(S'publisher'
I10282
tp7129
ssI8
(dp7130
I0
(S'desperate'
I9795
tp7131
sI8
(dp7132
I0
(S'happiness'
I7036
tp7133
sssI7
(dp7134
I0
(S'transport'
I5336
tp7135
sssI7
(dp7136
I0
(S'municipal'
I5536
tp7137
sssI9
(dp7138
I0
(S'dangerous'
I25170
tp7139
sI8
(dp7140
I0
(S'territory'
I15831
tp7141
sI7
(dp7142
I0
(S'inspector'
I8652
tp7143
sI8
(dp7144
I0
(S'performer'
I6896
tp7145
ssssI9
(dp7146
I0
(S'high-tech'
I5681
tp7147
sI8
(dp7148
I0
(S'chemistry'
I5192
tp7149
sssI7
(dp7150
I0
(S'depressed'
I5543
tp7151
sssI6
(dp7152
I0
(S'candidate'
I43251
tp7153
sI9
(dp7154
I0
(S'regularly'
I11329
tp7155
ssI8
(dp7156
I0
(S'gradually'
I10537
tp7157
sssI7
(dp7158
I0
(S'character'
I49530
tp7159
sI8
(dp7160
I0
(S'associate'
I30406
tp7161
sI9
(dp7162
I0
(S'naturally'
I11304
tp7163
ssI6
(dp7164
I0
(S'landscape'
I20171
tp7165
sI7
(dp7166
I0
(S'eliminate'
I19773
tp7167
ssssI7
(dp7168
I0
(S'privately'
I5212
tp7169
ssI6
(dp7170
I0
(S'chocolate'
I12682
tp7171
ssI9
(dp7172
I0
(S'privilege'
I7923
tp7173
ssssI7
(dp7174
I0
(S'obviously'
I31299
tp7175
sI8
(dp7176
I0
(S'principle'
I30011
tp7177
sI8
(dp7178
I0
(S'attribute'
I9228
tp7179
sI8
(dp7180
I0
(S'indicator'
I7574
tp7181
sssI9
(dp7182
I0
(S'diagnosis'
I8454
tp7183
ssI7
(dp7184
I0
(S'furniture'
I12461
tp7185
sI4
(dp7186
I0
(S'magnitude'
I7115
tp7187
ssssI7
(dp7188
I0
(S'discovery'
I15358
tp7189
sI8
(dp7190
I0
(S'initially'
I12022
tp7191
sI3
(dp7192
I0
(S'partially'
I5882
tp7193
sssI4
(dp7194
I0
(S'discourse'
I10560
tp7195
ssI6
(dp7196
I0
(S'precisely'
I12878
tp7197
sssI6
(dp7198
I0
(S'basically'
I23265
tp7199
sI3
(dp7200
I0
(S'typically'
I18254
tp7201
ssI5
(dp7202
I0
(S'virtually'
I17426
tp7203
ssI7
(dp7204
I0
(S'invisible'
I7355
tp7205
sssI9
(dp7206
I0
(S'disappear'
I23389
tp7207
sI9
(dp7208
I0
(S'calculate'
I10485
tp7209
ssI8
(dp7210
I0
(S'architect'
I8969
tp7211
sI9
(dp7212
I0
(S'classical'
I8475
tp7213
ssI7
(dp7214
I0
(S'highlight'
I9119
tp7215
sI8
(dp7216
I0
(S'broadcast'
I8130
tp7217
ssssI7
(dp7218
I0
(S'principal'
I9920
tp7219
sI9
(dp7220
I0
(S'departure'
I7008
tp7221
sssssI6
(dp7222
I0
(S'perfectly'
I13671
tp7223
ssI9
(dp7224
I0
(S'everybody'
I51147
tp7225
sI9
(dp7226
I0
(S'knowledge'
I50335
tp7227
sI9
(dp7228
I0
(S'Christmas'
I28046
tp7229
ssI8
(dp7230
I0
(S'ourselves'
I19926
tp7231
sI8
(dp7232
I0
(S'translate'
I11722
tp7233
sssI7
(dp7234
I0
(S'newspaper'
I37522
tp7235
sI8
(dp7236
I0
(S'insurance'
I32928
tp7237
sI8
(dp7238
I0
(S'advantage'
I29340
tp7239
sI9
(dp7240
I0
(S'gentleman'
I14648
tp7241
sssI5
(dp7242
I0
(S'residence'
I7332
tp7243
sssI6
(dp7244
I0
(S'passenger'
I16933
tp7245
ssssI7
(dp7246
I0
(S'yesterday'
I26215
tp7247
sI9
(dp7248
I0
(S'anonymous'
I5949
tp7249
sI7
(dp7250
I0
(S'ecosystem'
I6215
tp7251
ssssI6
(dp7252
I0
(S'therefore'
I35842
tp7253
ssI8
(dp7254
I0
(S'encourage'
I33348
tp7255
sI4
(dp7256
I0
(S'encounter'
I11974
tp7257
ssI5
(dp7258
I0
(S'elaborate'
I5349
tp7259
ssI6
(dp7260
I0
(S'increased'
I18984
tp7261
ssI8
(dp7262
I0
(S'classroom'
I27531
tp7263
sI8
(dp7264
I0
(S'personnel'
I14095
tp7265
sI8
(dp7266
I0
(S'regulator'
I5462
tp7267
ssI7
(dp7268
I0
(S'guarantee'
I11430
tp7269
sssI9
(dp7270
I0
(S'perceived'
I6386
tp7271
sssI9
(dp7272
I0
(S'transform'
I15815
tp7273
sI8
(dp7274
I0
(S'awareness'
I12013
tp7275
sssssssI10
(dp7276
I0
(S'government'
I191314
tp7277
sI4
(dp7278
I0
(S'investment'
I38810
tp7279
sI5
(dp7280
I0
(S'experiment'
I18440
tp7281
ssI6
(dp7282
I0
(S'tournament'
I12684
tp7283
sssI5
(dp7284
I0
(S'department'
I32252
tp7285
sI4
(dp7286
I0
(S'retirement'
I13964
tp7287
ssI5
(dp7288
I0
(S'instrument'
I23831
tp7289
sI6
(dp7290
I0
(S'commitment'
I23152
tp7291
sssI6
(dp7292
I0
(S'assessment'
I26318
tp7293
sI3
(dp7294
I0
(S'assignment'
I9874
tp7295
ssssI6
(dp7296
I0
(S'management'
I45112
tp7297
sI3
(dp7298
I0
(S'engagement'
I7675
tp7299
ssI4
(dp7300
I0
(S'harassment'
I5882
tp7301
ssI5
(dp7302
I0
(S'settlement'
I16172
tp7303
sI5
(dp7304
I0
(S'excitement'
I8160
tp7305
ssI6
(dp7306
I0
(S'punishment'
I9986
tp7307
sssI6
(dp7308
I0
(S'consistent'
I16334
tp7309
sI6
(dp7310
I0
(S'adjustment'
I10309
tp7311
sI5
(dp7312
I0
(S'adolescent'
I10568
tp7313
sssI7
(dp7314
I0
(S'employment'
I13673
tp7315
sssI7
(dp7316
I0
(S'respondent'
I15057
tp7317
ssI8
(dp7318
I0
(S'concerning'
I9329
tp7319
ssI9
(dp7320
I0
(S'conversion'
I5627
tp7321
sssI7
(dp7322
I0
(S'understand'
I121354
tp7323
sI8
(dp7324
I0
(S'experience'
I98106
tp7325
sI9
(dp7326
I0
(S'convention'
I14497
tp7327
sI8
(dp7328
I0
(S'developing'
I13171
tp7329
ssI6
(dp7330
I0
(S'constraint'
I5942
tp7331
sssI5
(dp7332
I0
(S'conference'
I40643
tp7333
ssI8
(dp7334
I0
(S'subsequent'
I9796
tp7335
sI8
(dp7336
I0
(S'wilderness'
I7916
tp7337
sssI7
(dp7338
I0
(S'ingredient'
I13382
tp7339
sI7
(dp7340
I0
(S'girlfriend'
I9832
tp7341
ssssI9
(dp7342
I0
(S'everywhere'
I18126
tp7343
sI9
(dp7344
I0
(S'journalist'
I16858
tp7345
sI8
(dp7346
I0
(S'sufficient'
I10275
tp7347
ssI10
(dp7348
I0
(S'phenomenon'
I14087
tp7349
ssI7
(dp7350
I0
(S'compromise'
I7469
tp7351
sssI10
(dp7352
I0
(S'continuing'
I7845
tp7353
ssI8
(dp7354
I0
(S'equivalent'
I5935
tp7355
sssI4
(dp7356
I0
(S'underlying'
I6340
tp7357
ssI7
(dp7358
I0
(S'everything'
I103591
tp7359
sI9
(dp7360
I0
(S'consultant'
I13646
tp7361
ssI6
(dp7362
I0
(S'generation'
I38323
tp7363
ssssI8
(dp7364
I0
(S'difference'
I82911
tp7365
sI3
(dp7366
I0
(S'preference'
I10833
tp7367
ssI5
(dp7368
I0
(S'confidence'
I18955
tp7369
ssI6
(dp7370
I0
(S'interested'
I29155
tp7371
sI8
(dp7372
I0
(S'appearance'
I21146
tp7373
sI7
(dp7374
I0
(S'conscience'
I5317
tp7375
ssssI7
(dp7376
I0
(S'literature'
I26254
tp7377
sI10
(dp7378
I0
(S'presidency'
I8814
tp7379
ssI7
(dp7380
I0
(S'attendance'
I5963
tp7381
sssI8
(dp7382
I0
(S'commercial'
I40608
tp7383
sI9
(dp7384
I0
(S'apparently'
I26513
tp7385
sI10
(dp7386
I0
(S'widespread'
I9319
tp7387
ssI7
(dp7388
I0
(S'percentage'
I20774
tp7389
sssI10
(dp7390
I0
(S'frequently'
I20508
tp7391
ssI8
(dp7392
I0
(S'enterprise'
I13542
tp7393
sI9
(dp7394
I0
(S'profession'
I11469
tp7395
sssI7
(dp7396
I0
(S'university'
I33000
tp7397
sssI9
(dp7398
I0
(S'collection'
I38431
tp7399
sI2
(dp7400
I0
(S'connection'
I26552
tp7401
ssI3
(dp7402
I0
(S'conception'
I5953
tp7403
ssI4
(dp7404
I0
(S'protection'
I29336
tp7405
ssI5
(dp7406
I0
(S'possession'
I7828
tp7407
sI5
(dp7408
I0
(S'prevention'
I7352
tp7409
sssI6
(dp7410
I0
(S'completely'
I32550
tp7411
sI8
(dp7412
I0
(S'proportion'
I10521
tp7413
ssI10
(dp7414
I0
(S'aggression'
I6215
tp7415
ssI6
(dp7416
I0
(S'comparison'
I16809
tp7417
sssI7
(dp7418
I0
(S'counseling'
I9303
tp7419
ssI8
(dp7420
I0
(S'contribute'
I30090
tp7421
sI8
(dp7422
I0
(S'strengthen'
I10159
tp7423
ssI10
(dp7424
I0
(S'elementary'
I13831
tp7425
sI9
(dp7426
I0
(S'processing'
I7220
tp7427
sssI9
(dp7428
I0
(S'supervisor'
I8049
tp7429
sssI10
(dp7430
I0
(S'restaurant'
I35898
tp7431
sI9
(dp7432
I0
(S'astronomer'
I8157
tp7433
ssI6
(dp7434
I0
(S'researcher'
I34742
tp7435
ssssI10
(dp7436
I0
(S'surprising'
I11327
tp7437
sI9
(dp7438
I0
(S'regardless'
I11042
tp7439
sI9
(dp7440
I0
(S'contractor'
I7634
tp7441
ssI10
(dp7442
I0
(S'conviction'
I9834
tp7443
ssI8
(dp7444
I0
(S'revelation'
I6297
tp7445
sssI10
(dp7446
I0
(S'continuous'
I8996
tp7447
ssI8
(dp7448
I0
(S'journalism'
I5684
tp7449
ssI7
(dp7450
I0
(S'accounting'
I7319
tp7451
ssssI9
(dp7452
I0
(S'especially'
I76304
tp7453
sI4
(dp7454
I0
(S'specialist'
I13041
tp7455
ssI5
(dp7456
I0
(S'eventually'
I34534
tp7457
ssI6
(dp7458
I0
(S'appreciate'
I20806
tp7459
sI8
(dp7460
I0
(S'personally'
I12317
tp7461
sI10
(dp7462
I0
(S'expedition'
I5467
tp7463
ssI7
(dp7464
I0
(S'repeatedly'
I9059
tp7465
sssI9
(dp7466
I0
(S'originally'
I10995
tp7467
sI8
(dp7468
I0
(S'efficiency'
I10579
tp7469
ssssI7
(dp7470
I0
(S'relatively'
I26476
tp7471
sI5
(dp7472
I0
(S'definitely'
I18214
tp7473
ssI6
(dp7474
I0
(S'reportedly'
I5911
tp7475
ssI7
(dp7476
I0
(S'presumably'
I6039
tp7477
ssI9
(dp7478
I0
(S'acceptable'
I8723
tp7479
ssI10
(dp7480
I0
(S'inspection'
I8128
tp7481
sssI8
(dp7482
I0
(S'television'
I49673
tp7483
sI5
(dp7484
I0
(S'reflection'
I11882
tp7485
ssI6
(dp7486
I0
(S'expression'
I24748
tp7487
ssI7
(dp7488
I0
(S'electronic'
I14057
tp7489
sI9
(dp7490
I0
(S'likelihood'
I5790
tp7491
sssI8
(dp7492
I0
(S'competitor'
I9377
tp7493
sI8
(dp7494
I0
(S'creativity'
I6452
tp7495
ssI9
(dp7496
I0
(S'accessible'
I5965
tp7497
sssI9
(dp7498
I0
(S'discipline'
I15684
tp7499
sI9
(dp7500
I0
(S'reasonable'
I13130
tp7501
sI4
(dp7502
I0
(S'remarkable'
I11683
tp7503
ssI6
(dp7504
I0
(S'vulnerable'
I10397
tp7505
ssI8
(dp7506
I0
(S'mechanical'
I7835
tp7507
ssI9
(dp7508
I0
(S'conspiracy'
I6261
tp7509
ssI10
(dp7510
I0
(S'complexity'
I7813
tp7511
sI9
(dp7512
I0
(S'mysterious'
I6484
tp7513
ssI5
(dp7514
I0
(S'popularity'
I6836
tp7515
ssssI10
(dp7516
I0
(S'wheelchair'
I5670
tp7517
ssI7
(dp7518
I0
(S'acceptance'
I8870
tp7519
sI5
(dp7520
I0
(S'compliance'
I5973
tp7521
ssssI10
(dp7522
I0
(S'absolutely'
I36740
tp7523
sI9
(dp7524
I0
(S'importance'
I24946
tp7525
sI10
(dp7526
I0
(S'unexpected'
I7829
tp7527
ssI6
(dp7528
I0
(S'comparable'
I5600
tp7529
sssI6
(dp7530
I0
(S'ultimately'
I20387
tp7531
ssI7
(dp7532
I0
(S'constantly'
I13033
tp7533
ssssI9
(dp7534
I0
(S'population'
I62999
tp7535
sI4
(dp7536
I0
(S'separation'
I7760
tp7537
ssI5
(dp7538
I0
(S'perception'
I21086
tp7539
sI6
(dp7540
I0
(S'allegation'
I8675
tp7541
sssI6
(dp7542
I0
(S'politician'
I20360
tp7543
sI8
(dp7544
I0
(S'depression'
I16976
tp7545
sI2
(dp7546
I0
(S'impression'
I12746
tp7547
ssssI7
(dp7548
I0
(S'prosecutor'
I17260
tp7549
sI8
(dp7550
I0
(S'collective'
I9384
tp7551
ssI10
(dp7552
I0
(S'occasional'
I8162
tp7553
ssI5
(dp7554
I0
(S'protective'
I6503
tp7555
sssI8
(dp7556
I0
(S'constitute'
I11945
tp7557
sI9
(dp7558
I0
(S'laboratory'
I9972
tp7559
ssI8
(dp7560
I0
(S'optimistic'
I6412
tp7561
sssI9
(dp7562
I0
(S'scientific'
I23691
tp7563
sI9
(dp7564
I0
(S'grandchild'
I5826
tp7565
sssI10
(dp7566
I0
(S'leadership'
I30047
tp7567
sI3
(dp7568
I0
(S'membership'
I10273
tp7569
ssI6
(dp7570
I0
(S'friendship'
I10130
tp7571
ssI8
(dp7572
I0
(S'legitimate'
I9543
tp7573
sI9
(dp7574
I0
(S'meaningful'
I7719
tp7575
sssI9
(dp7576
I0
(S'bankruptcy'
I6690
tp7577
ssI10
(dp7578
I0
(S'distribute'
I10747
tp7579
ssssI10
(dp7580
I0
(S'production'
I42052
tp7581
sI5
(dp7582
I0
(S'revolution'
I11800
tp7583
sI6
(dp7584
I0
(S'corruption'
I7518
tp7585
sssI6
(dp7586
I0
(S'foundation'
I15273
tp7587
sI4
(dp7588
I0
(S'motivation'
I10566
tp7589
sI3
(dp7590
I0
(S'nomination'
I9698
tp7591
sssI5
(dp7592
I0
(S'innovation'
I8099
tp7593
sI3
(dp7594
I0
(S'invitation'
I6460
tp7595
sssI6
(dp7596
I0
(S'suggestion'
I13145
tp7597
sssI7
(dp7598
I0
(S'conclusion'
I23034
tp7599
sI8
(dp7600
I0
(S'instructor'
I9912
tp7601
ssI4
(dp7602
I0
(S'commission'
I14371
tp7603
sssI8
(dp7604
I0
(S'throughout'
I40170
tp7605
sI8
(dp7606
I0
(S'tablespoon'
I15804
tp7607
ssI9
(dp7608
I0
(S'short-term'
I5998
tp7609
sI9
(dp7610
I0
(S'innovative'
I5921
tp7611
ssssI9
(dp7612
I0
(S'increasing'
I14886
tp7613
sI9
(dp7614
I0
(S'tremendous'
I11678
tp7615
ssI10
(dp7616
I0
(S'altogether'
I7147
tp7617
sI10
(dp7618
I0
(S'well-known'
I5782
tp7619
sssI6
(dp7620
I0
(S'aggressive'
I13191
tp7621
ssI7
(dp7622
I0
(S'well-being'
I6005
tp7623
sssI10
(dp7624
I0
(S'background'
I26907
tp7625
sI9
(dp7626
I0
(S'mainstream'
I8170
tp7627
ssI10
(dp7628
I0
(S'atmosphere'
I15310
tp7629
sssssI10
(dp7630
I0
(S'themselves'
I85256
tp7631
sI8
(dp7632
I0
(S'technology'
I69565
tp7633
sI9
(dp7634
I0
(S'transition'
I16058
tp7635
sI9
(dp7636
I0
(S'indigenous'
I8785
tp7637
sI9
(dp7638
I0
(S'two-thirds'
I5558
tp7639
ssssI10
(dp7640
I0
(S'statistics'
I12086
tp7641
sI8
(dp7642
I0
(S'impressive'
I9100
tp7643
ssI7
(dp7644
I0
(S'attractive'
I11119
tp7645
sssI8
(dp7646
I0
(S'helicopter'
I9986
tp7647
sI8
(dp7648
I0
(S'ridiculous'
I6695
tp7649
sI9
(dp7650
I0
(S'specialize'
I6538
tp7651
ssssI7
(dp7652
I0
(S'thoroughly'
I6384
tp7653
sssI10
(dp7654
I0
(S'individual'
I54738
tp7655
sI5
(dp7656
I0
(S'additional'
I29771
tp7657
ssI6
(dp7658
I0
(S'indication'
I8715
tp7659
sI9
(dp7660
I0
(S'behavioral'
I8320
tp7661
ssI8
(dp7662
I0
(S'artificial'
I6730
tp7663
sssI7
(dp7664
I0
(S'historical'
I27266
tp7665
sI8
(dp7666
I0
(S'anticipate'
I9345
tp7667
sI8
(dp7668
I0
(S'functional'
I6736
tp7669
sssI4
(dp7670
I0
(S'biological'
I13233
tp7671
ssI9
(dp7672
I0
(S'incredibly'
I6141
tp7673
sssI8
(dp7674
I0
(S'particular'
I42291
tp7675
sI6
(dp7676
I0
(S'difficulty'
I22288
tp7677
ssI7
(dp7678
I0
(S'structural'
I7870
tp7679
ssI8
(dp7680
I0
(S'facilitate'
I8946
tp7681
sI8
(dp7682
I0
(S'officially'
I6462
tp7683
sssI9
(dp7684
I0
(S'medication'
I9789
tp7685
sI9
(dp7686
I0
(S'discourage'
I6177
tp7687
sI9
(dp7688
I0
(S'ecological'
I6443
tp7689
sssI10
(dp7690
I0
(S'withdrawal'
I6624
tp7691
sssI10
(dp7692
I0
(S'definition'
I17499
tp7693
sI4
(dp7694
I0
(S'exhibition'
I13987
tp7695
ssssI9
(dp7696
I0
(S'successful'
I35459
tp7697
sI8
(dp7698
I0
(S'basketball'
I20955
tp7699
sI10
(dp7700
I0
(S'curriculum'
I19193
tp7701
sssI10
(dp7702
I0
(S'obligation'
I10538
tp7703
sI10
(dp7704
I0
(S'earthquake'
I6439
tp7705
ssI4
(dp7706
I0
(S'limitation'
I11038
tp7707
ssI7
(dp7708
I0
(S'diplomatic'
I7193
tp7709
sssI9
(dp7710
I0
(S'similarity'
I5709
tp7711
sssI10
(dp7712
I0
(S'discussion'
I39616
tp7713
sI9
(dp7714
I0
(S'regulatory'
I7274
tp7715
ssI6
(dp7716
I0
(S'evaluation'
I16213
tp7717
sI5
(dp7718
I0
(S'occupation'
I9115
tp7719
ssI6
(dp7720
I0
(S'assumption'
I13434
tp7721
sssI7
(dp7722
I0
(S'regulation'
I22479
tp7723
sI2
(dp7724
I0
(S'reputation'
I13681
tp7725
ssI6
(dp7726
I0
(S'attraction'
I7280
tp7727
sssssI9
(dp7728
I0
(S'Republican'
I71611
tp7729
sI9
(dp7730
I0
(S'democratic'
I47299
tp7731
sI8
(dp7732
I0
(S'resistance'
I15686
tp7733
sI8
(dp7734
I0
(S'productive'
I7006
tp7735
ssI10
(dp7736
I0
(S'hypothesis'
I9890
tp7737
ssI9
(dp7738
I0
(S'supportive'
I5662
tp7739
ssI7
(dp7740
I0
(S'illustrate'
I15091
tp7741
sssI10
(dp7742
I0
(S'enthusiasm'
I7368
tp7743
sI9
(dp7744
I0
(S'supposedly'
I5451
tp7745
sI7
(dp7746
I0
(S'suspicious'
I5412
tp7747
ssssI9
(dp7748
I0
(S'accomplish'
I14325
tp7749
sI9
(dp7750
I0
(S'incredible'
I10342
tp7751
sI9
(dp7752
I0
(S'manipulate'
I6159
tp7753
sssssI10
(dp7754
I0
(S'photograph'
I22016
tp7755
sI9
(dp7756
I0
(S'initiative'
I16445
tp7757
sI9
(dp7758
I0
(S'previously'
I15092
tp7759
ssI8
(dp7760
I0
(S'automobile'
I6829
tp7761
sI8
(dp7762
I0
(S'associated'
I6754
tp7763
ssssI10
(dp7764
I0
(S'assistance'
I17396
tp7765
sI8
(dp7766
I0
(S'administer'
I8135
tp7767
sI10
(dp7768
I0
(S'inevitably'
I5420
tp7769
sssI7
(dp7770
I0
(S'inevitable'
I7889
tp7771
sI9
(dp7772
I0
(S'ambassador'
I5847
tp7773
ssssI6
(dp7774
I0
(S'philosophy'
I15746
tp7775
ssI8
(dp7776
I0
(S'psychology'
I11316
tp7777
sssI8
(dp7778
I0
(S'impossible'
I22233
tp7779
sI9
(dp7780
I0
(S'resolution'
I18922
tp7781
sI8
(dp7782
I0
(S'disability'
I14197
tp7783
ssI7
(dp7784
I0
(S'legislator'
I5593
tp7785
sssI10
(dp7786
I0
(S'prediction'
I7996
tp7787
ssI8
(dp7788
I0
(S'permission'
I9298
tp7789
sI8
(dp7790
I0
(S'physically'
I9039
tp7791
sssI7
(dp7792
I0
(S'opposition'
I19847
tp7793
sI8
(dp7794
I0
(S'industrial'
I19413
tp7795
ssssI7
(dp7796
I0
(S'capability'
I10906
tp7797
sI10
(dp7798
I0
(S'electrical'
I7347
tp7799
ssssssI11
(dp7800
I0
(S'information'
I127331
tp7801
sI4
(dp7802
I0
(S'instruction'
I25190
tp7803
sI3
(dp7804
I0
(S'interaction'
I19144
tp7805
ssI4
(dp7806
I0
(S'inspiration'
I6584
tp7807
ssI5
(dp7808
I0
(S'integration'
I8847
tp7809
sssI5
(dp7810
I0
(S'institution'
I42153
tp7811
sI5
(dp7812
I0
(S'implication'
I14791
tp7813
sI3
(dp7814
I0
(S'imagination'
I10913
tp7815
sssI6
(dp7816
I0
(S'association'
I17759
tp7817
sI4
(dp7818
I0
(S'negotiation'
I15680
tp7819
ssI5
(dp7820
I0
(S'observation'
I17500
tp7821
sI2
(dp7822
I0
(S'reservation'
I10215
tp7823
sssI6
(dp7824
I0
(S'immigration'
I14526
tp7825
sssI7
(dp7826
I0
(S'corporation'
I12612
tp7827
sI4
(dp7828
I0
(S'exploration'
I7294
tp7829
ssssI6
(dp7830
I0
(S'interesting'
I37473
tp7831
sI9
(dp7832
I0
(S'application'
I25735
tp7833
sI3
(dp7834
I0
(S'publication'
I14045
tp7835
ssI4
(dp7836
I0
(S'explanation'
I17712
tp7837
ssI5
(dp7838
I0
(S'combination'
I20026
tp7839
sI4
(dp7840
I0
(S'examination'
I10722
tp7841
sI4
(dp7842
I0
(S'destination'
I7039
tp7843
sssI6
(dp7844
I0
(S'speculation'
I5698
tp7845
sssI6
(dp7846
I0
(S'legislation'
I17934
tp7847
sI4
(dp7848
I0
(S'translation'
I6266
tp7849
ssI5
(dp7850
I0
(S'calculation'
I5577
tp7851
ssI6
(dp7852
I0
(S'preparation'
I13553
tp7853
sI4
(dp7854
I0
(S'frustration'
I9005
tp7855
ssssI7
(dp7856
I0
(S'recognition'
I14249
tp7857
sI7
(dp7858
I0
(S'consumption'
I10162
tp7859
ssssI6
(dp7860
I0
(S'influential'
I6161
tp7861
ssI8
(dp7862
I0
(S'expectation'
I19603
tp7863
sI4
(dp7864
I0
(S'orientation'
I10613
tp7865
ssI5
(dp7866
I0
(S'cooperation'
I12833
tp7867
sI4
(dp7868
I0
(S'celebration'
I10209
tp7869
sssI6
(dp7870
I0
(S'correlation'
I9584
tp7871
ssI7
(dp7872
I0
(S'description'
I16415
tp7873
sI3
(dp7874
I0
(S'destruction'
I12356
tp7875
sI2
(dp7876
I0
(S'restriction'
I9928
tp7877
ssssssI7
(dp7878
I0
(S'performance'
I59909
tp7879
sI7
(dp7880
I0
(S'enforcement'
I15052
tp7881
ssI8
(dp7882
I0
(S'incorporate'
I13310
tp7883
ssI9
(dp7884
I0
(S'alternative'
I17197
tp7885
sI9
(dp7886
I0
(S'encouraging'
I5868
tp7887
ssI7
(dp7888
I0
(S'mathematics'
I6828
tp7889
sssI10
(dp7890
I0
(S'composition'
I10961
tp7891
sI7
(dp7892
I0
(S'prosecution'
I8941
tp7893
sssI11
(dp7894
I0
(S'competition'
I28752
tp7895
sI6
(dp7896
I0
(S'acquisition'
I7338
tp7897
ssI7
(dp7898
I0
(S'distinction'
I11383
tp7899
sI6
(dp7900
I0
(S'transaction'
I7418
tp7901
sssssI8
(dp7902
I0
(S'opportunity'
I62422
tp7903
sI6
(dp7904
I0
(S'fortunately'
I5974
tp7905
ssI7
(dp7906
I0
(S'uncertainty'
I7671
tp7907
ssI8
(dp7908
I0
(S'comfortable'
I21101
tp7909
sI8
(dp7910
I0
(S'coordinator'
I6478
tp7911
ssI7
(dp7912
I0
(S'cooperative'
I6671
tp7913
sssI9
(dp7914
I0
(S'differently'
I9565
tp7915
sI10
(dp7916
I0
(S'theoretical'
I8320
tp7917
sI10
(dp7918
I0
(S'supermarket'
I5389
tp7919
ssssI10
(dp7920
I0
(S'immediately'
I33067
tp7921
sI9
(dp7922
I0
(S'involvement'
I15640
tp7923
sI10
(dp7924
I0
(S'fascinating'
I6231
tp7925
ssI11
(dp7926
I0
(S'legislative'
I8384
tp7927
sssI10
(dp7928
I0
(S'educational'
I25282
tp7929
ssssI9
(dp7930
I0
(S'environment'
I47807
tp7931
sI6
(dp7932
I0
(S'independent'
I31044
tp7933
sI7
(dp7934
I0
(S'improvement'
I18977
tp7935
sssI7
(dp7936
I0
(S'engineering'
I14853
tp7937
sI9
(dp7938
I0
(S'appointment'
I9993
tp7939
sI8
(dp7940
I0
(S'intelligent'
I7373
tp7941
ssssI8
(dp7942
I0
(S'advertising'
I12601
tp7943
sI7
(dp7944
I0
(S'programming'
I5507
tp7945
sssI9
(dp7946
I0
(S'appropriate'
I26237
tp7947
sI8
(dp7948
I0
(S'investigate'
I20117
tp7949
sI10
(dp7950
I0
(S'personality'
I16933
tp7951
sssI10
(dp7952
I0
(S'residential'
I7415
tp7953
sI11
(dp7954
I0
(S'embarrassed'
I5627
tp7955
sssI11
(dp7956
I0
(S'businessman'
I7190
tp7957
ssI9
(dp7958
I0
(S'desperately'
I5701
tp7959
sssI10
(dp7960
I0
(S'traditional'
I43681
tp7961
sI9
(dp7962
I0
(S'grandmother'
I13670
tp7963
sI10
(dp7964
I0
(S'substantial'
I13376
tp7965
ssI11
(dp7966
I0
(S'ideological'
I6793
tp7967
sssI10
(dp7968
I0
(S'temperature'
I23111
tp7969
sI9
(dp7970
I0
(S'accommodate'
I7571
tp7971
ssI10
(dp7972
I0
(S'progressive'
I6387
tp7973
sssI11
(dp7974
I0
(S'legislature'
I6027
tp7975
sI9
(dp7976
I0
(S'demographic'
I6103
tp7977
sssI8
(dp7978
I0
(S'Palestinian'
I14008
tp7979
sssI11
(dp7980
I0
(S'perspective'
I28324
tp7981
sI9
(dp7982
I0
(S'necessarily'
I18334
tp7983
ssI10
(dp7984
I0
(S'grandfather'
I11003
tp7985
sI10
(dp7986
I0
(S'cholesterol'
I10641
tp7987
sssI6
(dp7988
I0
(S'competitive'
I14938
tp7989
sI7
(dp7990
I0
(S'distinctive'
I5373
tp7991
sssssI10
(dp7992
I0
(S'significant'
I58947
tp7993
sI6
(dp7994
I0
(S'participant'
I41462
tp7995
ssI7
(dp7996
I0
(S'statistical'
I6634
tp7997
ssI8
(dp7998
I0
(S'communicate'
I12179
tp7999
sI8
(dp8000
I0
(S'counterpart'
I7484
tp8001
ssI10
(dp8002
I0
(S'grandparent'
I5334
tp8003
ssI9
(dp8004
I0
(S'preliminary'
I5908
tp8005
sI8
(dp8006
I0
(S'sensitivity'
I5981
tp8007
ssssI9
(dp8008
I0
(S'possibility'
I32466
tp8009
sI4
(dp8010
I0
(S'credibility'
I6742
tp8011
sI3
(dp8012
I0
(S'flexibility'
I6149
tp8013
sssI7
(dp8014
I0
(S'electricity'
I11954
tp8015
ssI8
(dp8016
I0
(S'distinguish'
I9664
tp8017
ssI9
(dp8018
I0
(S'complicated'
I11306
tp8019
ssI10
(dp8020
I0
(S'anniversary'
I8676
tp8021
sI11
(dp8022
I0
(S'surrounding'
I5826
tp8023
sssI11
(dp8024
I0
(S'maintenance'
I10167
tp8025
sI11
(dp8026
I0
(S'theological'
I5684
tp8027
ssssI10
(dp8028
I0
(S'demonstrate'
I29170
tp8029
sI6
(dp8030
I0
(S'concentrate'
I14155
tp8031
ssI8
(dp8032
I0
(S'documentary'
I6321
tp8033
sI9
(dp8034
I0
(S'emotionally'
I5321
tp8035
sssI9
(dp8036
I0
(S'fundamental'
I15199
tp8037
sI9
(dp8038
I0
(S'potentially'
I11387
tp8039
ssI10
(dp8040
I0
(S'reliability'
I7053
tp8041
sI9
(dp8042
I0
(S'self-esteem'
I6727
tp8043
ssssI10
(dp8044
I0
(S'effectively'
I13277
tp8045
sI9
(dp8046
I0
(S'experienced'
I6031
tp8047
ssI10
(dp8048
I0
(S'agriculture'
I6621
tp8049
ssI11
(dp8050
I0
(S'scholarship'
I10305
tp8051
sssI11
(dp8052
I0
(S'outstanding'
I6803
tp8053
sssI11
(dp8054
I0
(S'controversy'
I11054
tp8055
sI9
(dp8056
I0
(S'photography'
I7087
tp8057
ssI10
(dp8058
I0
(S'furthermore'
I10349
tp8059
ssssI11
(dp8060
I0
(S'development'
I91995
tp8061
sI6
(dp8062
I0
(S'requirement'
I20358
tp8063
sI4
(dp8064
I0
(S'measurement'
I10187
tp8065
sI5
(dp8066
I0
(S'replacement'
I7734
tp8067
ssssI7
(dp8068
I0
(S'achievement'
I18998
tp8069
sI5
(dp8070
I0
(S'arrangement'
I14403
tp8071
sssI9
(dp8072
I0
(S'nonetheless'
I9168
tp8073
sI9
(dp8074
I0
(S'shareholder'
I5742
tp8075
ssI10
(dp8076
I0
(S'exclusively'
I5852
tp8077
sssI10
(dp8078
I0
(S'responsible'
I27569
tp8079
sI9
(dp8080
I0
(S'acknowledge'
I21983
tp8081
ssI10
(dp8082
I0
(S'consequence'
I23307
tp8083
sI8
(dp8084
I0
(S'marketplace'
I5650
tp8085
ssI11
(dp8086
I0
(S'willingness'
I6461
tp8087
sssI7
(dp8088
I0
(S'essentially'
I15020
tp8089
sssI11
(dp8090
I0
(S'participate'
I26500
tp8091
sI8
(dp8092
I0
(S'politically'
I11324
tp8093
sI8
(dp8094
I0
(S'spectacular'
I6276
tp8095
ssI10
(dp8096
I0
(S'quarterback'
I10014
tp8097
sssI7
(dp8098
I0
(S'partnership'
I11115
tp8099
sI9
(dp8100
I0
(S'practically'
I6914
tp8101
ssssssI12
(dp8102
I0
(S'relationship'
I84549
tp8103
sI5
(dp8104
I0
(S'championship'
I16008
tp8105
ssI8
(dp8106
I0
(S'occasionally'
I13321
tp8107
ssI9
(dp8108
I0
(S'presentation'
I11372
tp8109
sI11
(dp8110
I0
(S'dramatically'
I8712
tp8111
ssI6
(dp8112
I0
(S'appreciation'
I6054
tp8113
ssI7
(dp8114
I0
(S'practitioner'
I6670
tp8115
sssI10
(dp8116
I0
(S'organization'
I67278
tp8117
sI5
(dp8118
I0
(S'civilization'
I8447
tp8119
ssI6
(dp8120
I0
(S'compensation'
I7512
tp8121
ssI7
(dp8122
I0
(S'conversation'
I33046
tp8123
sI8
(dp8124
I0
(S'satisfaction'
I12237
tp8125
sI8
(dp8126
I0
(S'transmission'
I7829
tp8127
sssI2
(dp8128
I0
(S'conservation'
I6129
tp8129
ssI5
(dp8130
I0
(S'constitution'
I6111
tp8131
ssI7
(dp8132
I0
(S'prescription'
I9169
tp8133
sI8
(dp8134
I0
(S'installation'
I5938
tp8135
ssssI9
(dp8136
I0
(S'presidential'
I24057
tp8137
sI8
(dp8138
I0
(S'conventional'
I13209
tp8139
ssI9
(dp8140
I0
(S'refrigerator'
I6497
tp8141
sI10
(dp8142
I0
(S'Christianity'
I6312
tp8143
ssssI10
(dp8144
I0
(S'professional'
I36319
tp8145
sI12
(dp8146
I0
(S'deliberately'
I5388
tp8147
sssI11
(dp8148
I0
(S'neighborhood'
I34691
tp8149
sI10
(dp8150
I0
(S'disappointed'
I6724
tp8151
sI9
(dp8152
I0
(S'metropolitan'
I6149
tp8153
sssI11
(dp8154
I0
(S'respectively'
I8223
tp8155
ssI12
(dp8156
I0
(S'increasingly'
I23529
tp8157
ssssI11
(dp8158
I0
(S'particularly'
I50329
tp8159
sI8
(dp8160
I0
(S'specifically'
I18873
tp8161
ssI9
(dp8162
I0
(S'surprisingly'
I8704
tp8163
sI10
(dp8164
I0
(S'productivity'
I6651
tp8165
sssI10
(dp8166
I0
(S'contribution'
I20912
tp8167
sI11
(dp8168
I0
(S'photographer'
I9739
tp8169
sI11
(dp8170
I0
(S'architecture'
I8449
tp8171
sssI10
(dp8172
I0
(S'characterize'
I11799
tp8173
sI11
(dp8174
I0
(S'experimental'
I9019
tp8175
sssI3
(dp8176
I0
(S'distribution'
I15249
tp8177
sssI11
(dp8178
I0
(S'construction'
I27114
tp8179
sI5
(dp8180
I0
(S'introduction'
I11483
tp8181
ssI7
(dp8182
I0
(S'jurisdiction'
I5691
tp8183
ssI9
(dp8184
I0
(S'investigator'
I15258
tp8185
sI10
(dp8186
I0
(S'commissioner'
I6303
tp8187
sssI11
(dp8188
I0
(S'headquarters'
I11135
tp8189
sI12
(dp8190
I0
(S'psychologist'
I10698
tp8191
sssI12
(dp8192
I0
(S'nevertheless'
I13190
tp8193
sssI12
(dp8194
I0
(S'intelligence'
I27555
tp8195
sI8
(dp8196
I0
(S'intervention'
I21021
tp8197
ssI11
(dp8198
I0
(S'Thanksgiving'
I5859
tp8199
ssI9
(dp8200
I0
(S'unemployment'
I8471
tp8201
ssssI12
(dp8202
I0
(S'circumstance'
I20310
tp8203
sI7
(dp8204
I0
(S'significance'
I11520
tp8205
ssI9
(dp8206
I0
(S'independence'
I15259
tp8207
sI10
(dp8208
I0
(S'considerable'
I11544
tp8209
sI9
(dp8210
I0
(S'carbohydrate'
I8057
tp8211
sssI11
(dp8212
I0
(S'consistently'
I8104
tp8213
ssI12
(dp8214
I0
(S'agricultural'
I10535
tp8215
sssI10
(dp8216
I0
(S'conservative'
I19778
tp8217
sI8
(dp8218
I0
(S'contemporary'
I19293
tp8219
ssI11
(dp8220
I0
(S'successfully'
I9728
tp8221
sI9
(dp8222
I0
(S'historically'
I7426
tp8223
sssI7
(dp8224
I0
(S'considerably'
I5481
tp8225
sssI11
(dp8226
I0
(S'manufacturer'
I15741
tp8227
sI10
(dp8228
I0
(S'announcement'
I7863
tp8229
ssI11
(dp8230
I0
(S'consequently'
I6463
tp8231
ssI12
(dp8232
I0
(S'overwhelming'
I7831
tp8233
sssI12
(dp8234
I0
(S'intellectual'
I11842
tp8235
sI8
(dp8236
I0
(S'entrepreneur'
I6238
tp8237
sssssI13
(dp8238
I0
(S'international'
I81610
tp8239
sI4
(dp8240
I0
(S'instructional'
I7014
tp8241
ssI5
(dp8242
I0
(S'institutional'
I10397
tp8243
ssI6
(dp8244
I0
(S'determination'
I7170
tp8245
ssI7
(dp8246
I0
(S'investigation'
I33849
tp8247
sI11
(dp8248
I0
(S'congressional'
I14936
tp8249
sssI8
(dp8250
I0
(S'entertainment'
I14615
tp8251
sI10
(dp8252
I0
(S'concentration'
I12146
tp8253
ssI11
(dp8254
I0
(S'consideration'
I14047
tp8255
sI12
(dp8256
I0
(S'traditionally'
I7717
tp8257
ssI5
(dp8258
I0
(S'confrontation'
I5762
tp8259
ssssI9
(dp8260
I0
(S'environmental'
I51192
tp8261
sI9
(dp8262
I0
(S'controversial'
I9918
tp8263
ssI11
(dp8264
I0
(S'understanding'
I31319
tp8265
sI12
(dp8266
I0
(S'revolutionary'
I6886
tp8267
sssI12
(dp8268
I0
(S'communication'
I31577
tp8269
sI10
(dp8270
I0
(S'automatically'
I6823
tp8271
ssI7
(dp8272
I0
(S'demonstration'
I9729
tp8273
sssI13
(dp8274
I0
(S'participation'
I17187
tp8275
sssI10
(dp8276
I0
(S'unfortunately'
I17482
tp8277
sI10
(dp8278
I0
(S'extraordinary'
I12356
tp8279
ssI11
(dp8280
I0
(S'questionnaire'
I9123
tp8281
sI11
(dp8282
I0
(S'collaboration'
I6889
tp8283
ssI12
(dp8284
I0
(S'developmental'
I6255
tp8285
sssI13
(dp8286
I0
(S'technological'
I7780
tp8287
sI13
(dp8288
I0
(S'old-fashioned'
I5200
tp8289
ssssI11
(dp8290
I0
(S'significantly'
I22038
tp8291
sI10
(dp8292
I0
(S'administrator'
I14058
tp8293
ssI11
(dp8294
I0
(S'psychological'
I15249
tp8295
sI13
(dp8296
I0
(S'effectiveness'
I8889
tp8297
sI10
(dp8298
I0
(S'unprecedented'
I5798
tp8299
sssI7
(dp8300
I0
(S'philosophical'
I5731
tp8301
ssssI12
(dp8302
I0
(S'approximately'
I15172
tp8303
sI9
(dp8304
I0
(S'sophisticated'
I9886
tp8305
ssI11
(dp8306
I0
(S'establishment'
I11355
tp8307
sI10
(dp8308
I0
(S'correspondent'
I12008
tp8309
ssI13
(dp8310
I0
(S'uncomfortable'
I7667
tp8311
sssI12
(dp8312
I0
(S'comprehensive'
I11602
tp8313
sI11
(dp8314
I0
(S'consciousness'
I9758
tp8315
sssI13
(dp8316
I0
(S'manufacturing'
I9822
tp8317
ssssI14
(dp8318
I0
(S'administration'
I62071
tp8319
sI2
(dp8320
I0
(S'administrative'
I8895
tp8321
ssI7
(dp8322
I0
(S'identification'
I9793
tp8323
ssI8
(dp8324
I0
(S'transportation'
I14516
tp8325
sI9
(dp8326
I0
(S'discrimination'
I9872
tp8327
ssI2
(dp8328
I0
(S'transformation'
I9561
tp8329
sssI9
(dp8330
I0
(S'interpretation'
I15613
tp8331
sI9
(dp8332
I0
(S'recommendation'
I11824
tp8333
ssI11
(dp8334
I0
(S'organizational'
I6445
tp8335
ssI7
(dp8336
I0
(S'representation'
I12063
tp8337
sI4
(dp8338
I0
(S'implementation'
I9293
tp8339
ssssI10
(dp8340
I0
(S'constitutional'
I12567
tp8341
ssI11
(dp8342
I0
(S'representative'
I18189
tp8343
sI10
(dp8344
I0
(S'infrastructure'
I7961
tp8345
sssI12
(dp8346
I0
(S'responsibility'
I37084
tp8347
sI12
(dp8348
I0
(S'disappointment'
I5464
tp8349
ssI13
(dp8350
I0
(S'characteristic'
I19621
tp8351
sI13
(dp8352
I0
(S'accomplishment'
I5980
tp8353
ssssI13
(dp8354
I0
(S'simultaneously'
I7960
tp8355
sssI16
(dp8356
I0
(S'African-American'
I9121
tp8357
ss.